ARM GAS  C:\Users\zacht\AppData\Local\Temp\ccqG58aR.s 			page 1


   1              		.cpu cortex-m4
   2              		.arch armv7e-m
   3              		.fpu fpv4-sp-d16
   4              		.eabi_attribute 27, 1
   5              		.eabi_attribute 28, 1
   6              		.eabi_attribute 20, 1
   7              		.eabi_attribute 21, 1
   8              		.eabi_attribute 23, 3
   9              		.eabi_attribute 24, 1
  10              		.eabi_attribute 25, 1
  11              		.eabi_attribute 26, 1
  12              		.eabi_attribute 30, 1
  13              		.eabi_attribute 34, 1
  14              		.eabi_attribute 18, 4
  15              		.file	"ILI9341_STM32_Driver.c"
  16              		.text
  17              	.Ltext0:
  18              		.cfi_sections	.debug_frame
  19              		.section	.text.ILI9341_SPI_Init,"ax",%progbits
  20              		.align	1
  21              		.global	ILI9341_SPI_Init
  22              		.syntax unified
  23              		.thumb
  24              		.thumb_func
  26              	ILI9341_SPI_Init:
  27              	.LFB134:
  28              		.file 1 "Core/Src/ILI9341_STM32_Driver.c"
   1:Core/Src/ILI9341_STM32_Driver.c **** 
   2:Core/Src/ILI9341_STM32_Driver.c **** //	MIT License
   3:Core/Src/ILI9341_STM32_Driver.c **** //
   4:Core/Src/ILI9341_STM32_Driver.c **** //	Copyright (c) 2017 Matej Artnak
   5:Core/Src/ILI9341_STM32_Driver.c **** //
   6:Core/Src/ILI9341_STM32_Driver.c **** //	Permission is hereby granted, free of charge, to any person obtaining a copy
   7:Core/Src/ILI9341_STM32_Driver.c **** //	of this software and associated documentation files (the "Software"), to deal
   8:Core/Src/ILI9341_STM32_Driver.c **** //	in the Software without restriction, including without limitation the rights
   9:Core/Src/ILI9341_STM32_Driver.c **** //	to use, copy, modify, merge, publish, distribute, sublicense, and/or sell
  10:Core/Src/ILI9341_STM32_Driver.c **** //	copies of the Software, and to permit persons to whom the Software is
  11:Core/Src/ILI9341_STM32_Driver.c **** //	furnished to do so, subject to the following conditions:
  12:Core/Src/ILI9341_STM32_Driver.c **** //
  13:Core/Src/ILI9341_STM32_Driver.c **** //	The above copyright notice and this permission notice shall be included in all
  14:Core/Src/ILI9341_STM32_Driver.c **** //	copies or substantial portions of the Software.
  15:Core/Src/ILI9341_STM32_Driver.c **** //
  16:Core/Src/ILI9341_STM32_Driver.c **** //	THE SOFTWARE IS PROVIDED "AS IS", WITHOUT WARRANTY OF ANY KIND, EXPRESS OR
  17:Core/Src/ILI9341_STM32_Driver.c **** //	IMPLIED, INCLUDING BUT NOT LIMITED TO THE WARRANTIES OF MERCHANTABILITY,
  18:Core/Src/ILI9341_STM32_Driver.c **** //	FITNESS FOR A PARTICULAR PURPOSE AND NONINFRINGEMENT. IN NO EVENT SHALL THE
  19:Core/Src/ILI9341_STM32_Driver.c **** //	AUTHORS OR COPYRIGHT HOLDERS BE LIABLE FOR ANY CLAIM, DAMAGES OR OTHER
  20:Core/Src/ILI9341_STM32_Driver.c **** //	LIABILITY, WHETHER IN AN ACTION OF CONTRACT, TORT OR OTHERWISE, ARISING FROM,
  21:Core/Src/ILI9341_STM32_Driver.c **** //	OUT OF OR IN CONNECTION WITH THE SOFTWARE OR THE USE OR OTHER DEALINGS IN THE
  22:Core/Src/ILI9341_STM32_Driver.c **** //	SOFTWARE.
  23:Core/Src/ILI9341_STM32_Driver.c **** //
  24:Core/Src/ILI9341_STM32_Driver.c **** //
  25:Core/Src/ILI9341_STM32_Driver.c **** //
  26:Core/Src/ILI9341_STM32_Driver.c **** //-----------------------------------
  27:Core/Src/ILI9341_STM32_Driver.c **** //	ILI9341 Driver library for STM32
  28:Core/Src/ILI9341_STM32_Driver.c **** //-----------------------------------
  29:Core/Src/ILI9341_STM32_Driver.c **** //
  30:Core/Src/ILI9341_STM32_Driver.c **** //	While there are other libraries for ILI9341 they mostly require either interrupts, DMA or both f
ARM GAS  C:\Users\zacht\AppData\Local\Temp\ccqG58aR.s 			page 2


  31:Core/Src/ILI9341_STM32_Driver.c **** //	The intent of this library is to offer a simple yet still reasonably fast alternatives for those
  32:Core/Src/ILI9341_STM32_Driver.c **** //	do not wish to use interrupts or DMA in their projects.
  33:Core/Src/ILI9341_STM32_Driver.c **** //
  34:Core/Src/ILI9341_STM32_Driver.c **** //	Library is written for STM32 HAL library and supports STM32CUBEMX. To use the library with Cube 
  35:Core/Src/ILI9341_STM32_Driver.c **** //	you need to tick the box that generates peripheral initialization code in their own respective .
  36:Core/Src/ILI9341_STM32_Driver.c **** //
  37:Core/Src/ILI9341_STM32_Driver.c **** //
  38:Core/Src/ILI9341_STM32_Driver.c **** //-----------------------------------
  39:Core/Src/ILI9341_STM32_Driver.c **** //	Performance
  40:Core/Src/ILI9341_STM32_Driver.c **** //-----------------------------------
  41:Core/Src/ILI9341_STM32_Driver.c **** //	Settings:	
  42:Core/Src/ILI9341_STM32_Driver.c **** //	--SPI @ 50MHz 
  43:Core/Src/ILI9341_STM32_Driver.c **** //	--STM32F746ZG Nucleo board
  44:Core/Src/ILI9341_STM32_Driver.c **** //	--Redraw entire screen
  45:Core/Src/ILI9341_STM32_Driver.c **** //
  46:Core/Src/ILI9341_STM32_Driver.c **** //	++		Theoretical maximum FPS with 50Mhz SPI calculated to be 40.69 FPS
  47:Core/Src/ILI9341_STM32_Driver.c **** //	++		320*240 = 76800 pixels, each pixel contains 16bit colour information (2x8)
  48:Core/Src/ILI9341_STM32_Driver.c **** //	++		Theoretical Max FPS: 1/((320*240*16)/50000000)
  49:Core/Src/ILI9341_STM32_Driver.c **** //
  50:Core/Src/ILI9341_STM32_Driver.c **** //	With ART Accelerator, instruction prefetch, CPI ICACHE and CPU DCACHE enabled:
  51:Core/Src/ILI9341_STM32_Driver.c **** //
  52:Core/Src/ILI9341_STM32_Driver.c **** //	-FPS:									39.62
  53:Core/Src/ILI9341_STM32_Driver.c **** //	-SPI utilization:			97.37%
  54:Core/Src/ILI9341_STM32_Driver.c **** //	-MB/Second:						6.09
  55:Core/Src/ILI9341_STM32_Driver.c **** //
  56:Core/Src/ILI9341_STM32_Driver.c **** //	With ART Accelerator, instruction prefetch, CPI ICACHE and CPU DCACHE disabled:
  57:Core/Src/ILI9341_STM32_Driver.c **** //
  58:Core/Src/ILI9341_STM32_Driver.c **** //	-FPS:									35.45
  59:Core/Src/ILI9341_STM32_Driver.c **** //	-SPI utilization:			87.12%
  60:Core/Src/ILI9341_STM32_Driver.c **** //	-MB/Second:						5.44
  61:Core/Src/ILI9341_STM32_Driver.c **** //	
  62:Core/Src/ILI9341_STM32_Driver.c **** //	ART Accelerator, instruction prefetch, CPI ICACHE and CPU DCACHE settings found in MXCUBE under 
  63:Core/Src/ILI9341_STM32_Driver.c **** //
  64:Core/Src/ILI9341_STM32_Driver.c **** //
  65:Core/Src/ILI9341_STM32_Driver.c **** //
  66:Core/Src/ILI9341_STM32_Driver.c **** //-----------------------------------
  67:Core/Src/ILI9341_STM32_Driver.c **** //	How to use this library
  68:Core/Src/ILI9341_STM32_Driver.c **** //-----------------------------------
  69:Core/Src/ILI9341_STM32_Driver.c **** //
  70:Core/Src/ILI9341_STM32_Driver.c **** //	-generate SPI peripheral and 3 GPIO_SPEED_FREQ_VERY_HIGH GPIO outputs
  71:Core/Src/ILI9341_STM32_Driver.c **** //	 		++Library reinitializes GPIOs and SPIs generated by gpio.c/.h and spi.c/.h using MX_X_Init();
  72:Core/Src/ILI9341_STM32_Driver.c **** //			++reinitialization will not clash with previous initialization so generated initializations ca
  73:Core/Src/ILI9341_STM32_Driver.c **** //	-If using MCUs other than STM32F7 you will have to change the #include "stm32f7xx_hal.h" in the 
  74:Core/Src/ILI9341_STM32_Driver.c **** //	-define your HSPI_INSTANCE in ILI9341_STM32_Driver.h
  75:Core/Src/ILI9341_STM32_Driver.c **** //	-define your CS, DC and RST outputs in ILI9341_STM32_Driver.h
  76:Core/Src/ILI9341_STM32_Driver.c **** //	-check if ILI9341_SCREEN_HEIGHT and ILI9341_SCREEN_WIDTH match your LCD size
  77:Core/Src/ILI9341_STM32_Driver.c **** //			++Library was written and tested for 320x240 screen size. Other sizes might have issues**
  78:Core/Src/ILI9341_STM32_Driver.c **** //	-in your main program initialize LCD with ILI9341_Init();
  79:Core/Src/ILI9341_STM32_Driver.c **** //	-library is now ready to be used. Driver library has only basic functions, for more advanced fun
  80:Core/Src/ILI9341_STM32_Driver.c **** //
  81:Core/Src/ILI9341_STM32_Driver.c **** //-----------------------------------
  82:Core/Src/ILI9341_STM32_Driver.c **** 
  83:Core/Src/ILI9341_STM32_Driver.c **** /* Includes ------------------------------------------------------------------*/
  84:Core/Src/ILI9341_STM32_Driver.c **** #include "ILI9341_STM32_Driver.h"
  85:Core/Src/ILI9341_STM32_Driver.c **** #include "spi.h"
  86:Core/Src/ILI9341_STM32_Driver.c **** #include "gpio.h"
  87:Core/Src/ILI9341_STM32_Driver.c **** 
ARM GAS  C:\Users\zacht\AppData\Local\Temp\ccqG58aR.s 			page 3


  88:Core/Src/ILI9341_STM32_Driver.c **** /* Global Variables ------------------------------------------------------------------*/
  89:Core/Src/ILI9341_STM32_Driver.c **** volatile uint16_t LCD_HEIGHT = ILI9341_SCREEN_HEIGHT;
  90:Core/Src/ILI9341_STM32_Driver.c **** volatile uint16_t LCD_WIDTH	 = ILI9341_SCREEN_WIDTH;
  91:Core/Src/ILI9341_STM32_Driver.c **** 
  92:Core/Src/ILI9341_STM32_Driver.c **** /* Initialize SPI */
  93:Core/Src/ILI9341_STM32_Driver.c **** void ILI9341_SPI_Init(void)
  94:Core/Src/ILI9341_STM32_Driver.c **** {
  29              		.loc 1 94 1 view -0
  30              		.cfi_startproc
  31              		@ args = 0, pretend = 0, frame = 0
  32              		@ frame_needed = 0, uses_anonymous_args = 0
  33 0000 08B5     		push	{r3, lr}
  34              	.LCFI0:
  35              		.cfi_def_cfa_offset 8
  36              		.cfi_offset 3, -8
  37              		.cfi_offset 14, -4
  95:Core/Src/ILI9341_STM32_Driver.c **** MX_SPI1_Init();																							//SPI INIT
  38              		.loc 1 95 1 view .LVU1
  39 0002 FFF7FEFF 		bl	MX_SPI1_Init
  40              	.LVL0:
  96:Core/Src/ILI9341_STM32_Driver.c **** MX_GPIO_Init();																							//GPIO INIT
  41              		.loc 1 96 1 view .LVU2
  42 0006 FFF7FEFF 		bl	MX_GPIO_Init
  43              	.LVL1:
  97:Core/Src/ILI9341_STM32_Driver.c **** HAL_GPIO_WritePin(LCD_CS_PORT, LCD_CS_PIN, GPIO_PIN_RESET);	//CS OFF
  44              		.loc 1 97 1 view .LVU3
  45 000a 0022     		movs	r2, #0
  46 000c 0121     		movs	r1, #1
  47 000e 0248     		ldr	r0, .L3
  48 0010 FFF7FEFF 		bl	HAL_GPIO_WritePin
  49              	.LVL2:
  98:Core/Src/ILI9341_STM32_Driver.c **** }
  50              		.loc 1 98 1 is_stmt 0 view .LVU4
  51 0014 08BD     		pop	{r3, pc}
  52              	.L4:
  53 0016 00BF     		.align	2
  54              	.L3:
  55 0018 00040240 		.word	1073873920
  56              		.cfi_endproc
  57              	.LFE134:
  59              		.section	.text.ILI9341_SPI_Send,"ax",%progbits
  60              		.align	1
  61              		.global	ILI9341_SPI_Send
  62              		.syntax unified
  63              		.thumb
  64              		.thumb_func
  66              	ILI9341_SPI_Send:
  67              	.LVL3:
  68              	.LFB135:
  99:Core/Src/ILI9341_STM32_Driver.c **** 
 100:Core/Src/ILI9341_STM32_Driver.c **** /*Send data (char) to LCD*/
 101:Core/Src/ILI9341_STM32_Driver.c **** void ILI9341_SPI_Send(unsigned char SPI_Data)
 102:Core/Src/ILI9341_STM32_Driver.c **** {
  69              		.loc 1 102 1 is_stmt 1 view -0
  70              		.cfi_startproc
  71              		@ args = 0, pretend = 0, frame = 8
  72              		@ frame_needed = 0, uses_anonymous_args = 0
ARM GAS  C:\Users\zacht\AppData\Local\Temp\ccqG58aR.s 			page 4


  73              		.loc 1 102 1 is_stmt 0 view .LVU6
  74 0000 00B5     		push	{lr}
  75              	.LCFI1:
  76              		.cfi_def_cfa_offset 4
  77              		.cfi_offset 14, -4
  78 0002 83B0     		sub	sp, sp, #12
  79              	.LCFI2:
  80              		.cfi_def_cfa_offset 16
  81 0004 8DF80700 		strb	r0, [sp, #7]
 103:Core/Src/ILI9341_STM32_Driver.c **** HAL_SPI_Transmit(HSPI_INSTANCE, &SPI_Data, 1, 1);
  82              		.loc 1 103 1 is_stmt 1 view .LVU7
  83 0008 0123     		movs	r3, #1
  84 000a 1A46     		mov	r2, r3
  85 000c 0DF10701 		add	r1, sp, #7
  86 0010 0248     		ldr	r0, .L7
  87              	.LVL4:
  88              		.loc 1 103 1 is_stmt 0 view .LVU8
  89 0012 FFF7FEFF 		bl	HAL_SPI_Transmit
  90              	.LVL5:
 104:Core/Src/ILI9341_STM32_Driver.c **** }
  91              		.loc 1 104 1 view .LVU9
  92 0016 03B0     		add	sp, sp, #12
  93              	.LCFI3:
  94              		.cfi_def_cfa_offset 4
  95              		@ sp needed
  96 0018 5DF804FB 		ldr	pc, [sp], #4
  97              	.L8:
  98              		.align	2
  99              	.L7:
 100 001c 00000000 		.word	hspi1
 101              		.cfi_endproc
 102              	.LFE135:
 104              		.section	.text.ILI9341_Write_Command,"ax",%progbits
 105              		.align	1
 106              		.global	ILI9341_Write_Command
 107              		.syntax unified
 108              		.thumb
 109              		.thumb_func
 111              	ILI9341_Write_Command:
 112              	.LVL6:
 113              	.LFB136:
 105:Core/Src/ILI9341_STM32_Driver.c **** 
 106:Core/Src/ILI9341_STM32_Driver.c **** /* Send command (char) to LCD */
 107:Core/Src/ILI9341_STM32_Driver.c **** void ILI9341_Write_Command(uint8_t Command)
 108:Core/Src/ILI9341_STM32_Driver.c **** {
 114              		.loc 1 108 1 is_stmt 1 view -0
 115              		.cfi_startproc
 116              		@ args = 0, pretend = 0, frame = 0
 117              		@ frame_needed = 0, uses_anonymous_args = 0
 118              		.loc 1 108 1 is_stmt 0 view .LVU11
 119 0000 38B5     		push	{r3, r4, r5, lr}
 120              	.LCFI4:
 121              		.cfi_def_cfa_offset 16
 122              		.cfi_offset 3, -16
 123              		.cfi_offset 4, -12
 124              		.cfi_offset 5, -8
 125              		.cfi_offset 14, -4
ARM GAS  C:\Users\zacht\AppData\Local\Temp\ccqG58aR.s 			page 5


 126 0002 0546     		mov	r5, r0
 109:Core/Src/ILI9341_STM32_Driver.c **** HAL_GPIO_WritePin(LCD_CS_PORT, LCD_CS_PIN, GPIO_PIN_RESET);
 127              		.loc 1 109 1 is_stmt 1 view .LVU12
 128 0004 094C     		ldr	r4, .L11
 129 0006 0022     		movs	r2, #0
 130 0008 0121     		movs	r1, #1
 131 000a 2046     		mov	r0, r4
 132              	.LVL7:
 133              		.loc 1 109 1 is_stmt 0 view .LVU13
 134 000c FFF7FEFF 		bl	HAL_GPIO_WritePin
 135              	.LVL8:
 110:Core/Src/ILI9341_STM32_Driver.c **** HAL_GPIO_WritePin(LCD_DC_PORT, LCD_DC_PIN, GPIO_PIN_RESET);	
 136              		.loc 1 110 1 is_stmt 1 view .LVU14
 137 0010 0022     		movs	r2, #0
 138 0012 0421     		movs	r1, #4
 139 0014 2046     		mov	r0, r4
 140 0016 FFF7FEFF 		bl	HAL_GPIO_WritePin
 141              	.LVL9:
 111:Core/Src/ILI9341_STM32_Driver.c **** ILI9341_SPI_Send(Command);
 142              		.loc 1 111 1 view .LVU15
 143 001a 2846     		mov	r0, r5
 144 001c FFF7FEFF 		bl	ILI9341_SPI_Send
 145              	.LVL10:
 112:Core/Src/ILI9341_STM32_Driver.c **** HAL_GPIO_WritePin(LCD_CS_PORT, LCD_CS_PIN, GPIO_PIN_SET);		
 146              		.loc 1 112 1 view .LVU16
 147 0020 0122     		movs	r2, #1
 148 0022 1146     		mov	r1, r2
 149 0024 2046     		mov	r0, r4
 150 0026 FFF7FEFF 		bl	HAL_GPIO_WritePin
 151              	.LVL11:
 113:Core/Src/ILI9341_STM32_Driver.c **** }
 152              		.loc 1 113 1 is_stmt 0 view .LVU17
 153 002a 38BD     		pop	{r3, r4, r5, pc}
 154              	.L12:
 155              		.align	2
 156              	.L11:
 157 002c 00040240 		.word	1073873920
 158              		.cfi_endproc
 159              	.LFE136:
 161              		.section	.text.ILI9341_Write_Data,"ax",%progbits
 162              		.align	1
 163              		.global	ILI9341_Write_Data
 164              		.syntax unified
 165              		.thumb
 166              		.thumb_func
 168              	ILI9341_Write_Data:
 169              	.LVL12:
 170              	.LFB137:
 114:Core/Src/ILI9341_STM32_Driver.c **** 
 115:Core/Src/ILI9341_STM32_Driver.c **** /* Send Data (char) to LCD */
 116:Core/Src/ILI9341_STM32_Driver.c **** void ILI9341_Write_Data(uint8_t Data)
 117:Core/Src/ILI9341_STM32_Driver.c **** {
 171              		.loc 1 117 1 is_stmt 1 view -0
 172              		.cfi_startproc
 173              		@ args = 0, pretend = 0, frame = 0
 174              		@ frame_needed = 0, uses_anonymous_args = 0
 175              		.loc 1 117 1 is_stmt 0 view .LVU19
ARM GAS  C:\Users\zacht\AppData\Local\Temp\ccqG58aR.s 			page 6


 176 0000 38B5     		push	{r3, r4, r5, lr}
 177              	.LCFI5:
 178              		.cfi_def_cfa_offset 16
 179              		.cfi_offset 3, -16
 180              		.cfi_offset 4, -12
 181              		.cfi_offset 5, -8
 182              		.cfi_offset 14, -4
 183 0002 0546     		mov	r5, r0
 118:Core/Src/ILI9341_STM32_Driver.c **** HAL_GPIO_WritePin(LCD_DC_PORT, LCD_DC_PIN, GPIO_PIN_SET);	
 184              		.loc 1 118 1 is_stmt 1 view .LVU20
 185 0004 094C     		ldr	r4, .L15
 186 0006 0122     		movs	r2, #1
 187 0008 0421     		movs	r1, #4
 188 000a 2046     		mov	r0, r4
 189              	.LVL13:
 190              		.loc 1 118 1 is_stmt 0 view .LVU21
 191 000c FFF7FEFF 		bl	HAL_GPIO_WritePin
 192              	.LVL14:
 119:Core/Src/ILI9341_STM32_Driver.c **** HAL_GPIO_WritePin(LCD_CS_PORT, LCD_CS_PIN, GPIO_PIN_RESET);
 193              		.loc 1 119 1 is_stmt 1 view .LVU22
 194 0010 0022     		movs	r2, #0
 195 0012 0121     		movs	r1, #1
 196 0014 2046     		mov	r0, r4
 197 0016 FFF7FEFF 		bl	HAL_GPIO_WritePin
 198              	.LVL15:
 120:Core/Src/ILI9341_STM32_Driver.c **** ILI9341_SPI_Send(Data);	
 199              		.loc 1 120 1 view .LVU23
 200 001a 2846     		mov	r0, r5
 201 001c FFF7FEFF 		bl	ILI9341_SPI_Send
 202              	.LVL16:
 121:Core/Src/ILI9341_STM32_Driver.c **** HAL_GPIO_WritePin(LCD_CS_PORT, LCD_CS_PIN, GPIO_PIN_SET);
 203              		.loc 1 121 1 view .LVU24
 204 0020 0122     		movs	r2, #1
 205 0022 1146     		mov	r1, r2
 206 0024 2046     		mov	r0, r4
 207 0026 FFF7FEFF 		bl	HAL_GPIO_WritePin
 208              	.LVL17:
 122:Core/Src/ILI9341_STM32_Driver.c **** }
 209              		.loc 1 122 1 is_stmt 0 view .LVU25
 210 002a 38BD     		pop	{r3, r4, r5, pc}
 211              	.L16:
 212              		.align	2
 213              	.L15:
 214 002c 00040240 		.word	1073873920
 215              		.cfi_endproc
 216              	.LFE137:
 218              		.section	.text.ILI9341_Set_Address,"ax",%progbits
 219              		.align	1
 220              		.global	ILI9341_Set_Address
 221              		.syntax unified
 222              		.thumb
 223              		.thumb_func
 225              	ILI9341_Set_Address:
 226              	.LVL18:
 227              	.LFB138:
 123:Core/Src/ILI9341_STM32_Driver.c **** 
 124:Core/Src/ILI9341_STM32_Driver.c **** /* Set Address - Location block - to draw into */
ARM GAS  C:\Users\zacht\AppData\Local\Temp\ccqG58aR.s 			page 7


 125:Core/Src/ILI9341_STM32_Driver.c **** void ILI9341_Set_Address(uint16_t X1, uint16_t Y1, uint16_t X2, uint16_t Y2)
 126:Core/Src/ILI9341_STM32_Driver.c **** {
 228              		.loc 1 126 1 is_stmt 1 view -0
 229              		.cfi_startproc
 230              		@ args = 0, pretend = 0, frame = 0
 231              		@ frame_needed = 0, uses_anonymous_args = 0
 232              		.loc 1 126 1 is_stmt 0 view .LVU27
 233 0000 F8B5     		push	{r3, r4, r5, r6, r7, lr}
 234              	.LCFI6:
 235              		.cfi_def_cfa_offset 24
 236              		.cfi_offset 3, -24
 237              		.cfi_offset 4, -20
 238              		.cfi_offset 5, -16
 239              		.cfi_offset 6, -12
 240              		.cfi_offset 7, -8
 241              		.cfi_offset 14, -4
 242 0002 0746     		mov	r7, r0
 243 0004 0D46     		mov	r5, r1
 244 0006 1646     		mov	r6, r2
 245 0008 1C46     		mov	r4, r3
 127:Core/Src/ILI9341_STM32_Driver.c **** ILI9341_Write_Command(0x2A);
 246              		.loc 1 127 1 is_stmt 1 view .LVU28
 247 000a 2A20     		movs	r0, #42
 248              	.LVL19:
 249              		.loc 1 127 1 is_stmt 0 view .LVU29
 250 000c FFF7FEFF 		bl	ILI9341_Write_Command
 251              	.LVL20:
 128:Core/Src/ILI9341_STM32_Driver.c **** ILI9341_Write_Data(X1>>8);
 252              		.loc 1 128 1 is_stmt 1 view .LVU30
 253 0010 380A     		lsrs	r0, r7, #8
 254 0012 FFF7FEFF 		bl	ILI9341_Write_Data
 255              	.LVL21:
 129:Core/Src/ILI9341_STM32_Driver.c **** ILI9341_Write_Data(X1);
 256              		.loc 1 129 1 view .LVU31
 257 0016 F8B2     		uxtb	r0, r7
 258 0018 FFF7FEFF 		bl	ILI9341_Write_Data
 259              	.LVL22:
 130:Core/Src/ILI9341_STM32_Driver.c **** ILI9341_Write_Data(X2>>8);
 260              		.loc 1 130 1 view .LVU32
 261 001c 300A     		lsrs	r0, r6, #8
 262 001e FFF7FEFF 		bl	ILI9341_Write_Data
 263              	.LVL23:
 131:Core/Src/ILI9341_STM32_Driver.c **** ILI9341_Write_Data(X2);
 264              		.loc 1 131 1 view .LVU33
 265 0022 F0B2     		uxtb	r0, r6
 266 0024 FFF7FEFF 		bl	ILI9341_Write_Data
 267              	.LVL24:
 132:Core/Src/ILI9341_STM32_Driver.c **** 
 133:Core/Src/ILI9341_STM32_Driver.c **** ILI9341_Write_Command(0x2B);
 268              		.loc 1 133 1 view .LVU34
 269 0028 2B20     		movs	r0, #43
 270 002a FFF7FEFF 		bl	ILI9341_Write_Command
 271              	.LVL25:
 134:Core/Src/ILI9341_STM32_Driver.c **** ILI9341_Write_Data(Y1>>8);
 272              		.loc 1 134 1 view .LVU35
 273 002e 280A     		lsrs	r0, r5, #8
 274 0030 FFF7FEFF 		bl	ILI9341_Write_Data
ARM GAS  C:\Users\zacht\AppData\Local\Temp\ccqG58aR.s 			page 8


 275              	.LVL26:
 135:Core/Src/ILI9341_STM32_Driver.c **** ILI9341_Write_Data(Y1);
 276              		.loc 1 135 1 view .LVU36
 277 0034 E8B2     		uxtb	r0, r5
 278 0036 FFF7FEFF 		bl	ILI9341_Write_Data
 279              	.LVL27:
 136:Core/Src/ILI9341_STM32_Driver.c **** ILI9341_Write_Data(Y2>>8);
 280              		.loc 1 136 1 view .LVU37
 281 003a 200A     		lsrs	r0, r4, #8
 282 003c FFF7FEFF 		bl	ILI9341_Write_Data
 283              	.LVL28:
 137:Core/Src/ILI9341_STM32_Driver.c **** ILI9341_Write_Data(Y2);
 284              		.loc 1 137 1 view .LVU38
 285 0040 E0B2     		uxtb	r0, r4
 286 0042 FFF7FEFF 		bl	ILI9341_Write_Data
 287              	.LVL29:
 138:Core/Src/ILI9341_STM32_Driver.c **** 
 139:Core/Src/ILI9341_STM32_Driver.c **** ILI9341_Write_Command(0x2C);
 288              		.loc 1 139 1 view .LVU39
 289 0046 2C20     		movs	r0, #44
 290 0048 FFF7FEFF 		bl	ILI9341_Write_Command
 291              	.LVL30:
 140:Core/Src/ILI9341_STM32_Driver.c **** }
 292              		.loc 1 140 1 is_stmt 0 view .LVU40
 293 004c F8BD     		pop	{r3, r4, r5, r6, r7, pc}
 294              		.cfi_endproc
 295              	.LFE138:
 297              		.section	.text.ILI9341_Reset,"ax",%progbits
 298              		.align	1
 299              		.global	ILI9341_Reset
 300              		.syntax unified
 301              		.thumb
 302              		.thumb_func
 304              	ILI9341_Reset:
 305              	.LFB139:
 141:Core/Src/ILI9341_STM32_Driver.c **** 
 142:Core/Src/ILI9341_STM32_Driver.c **** /*HARDWARE RESET*/
 143:Core/Src/ILI9341_STM32_Driver.c **** void ILI9341_Reset(void)
 144:Core/Src/ILI9341_STM32_Driver.c **** {
 306              		.loc 1 144 1 is_stmt 1 view -0
 307              		.cfi_startproc
 308              		@ args = 0, pretend = 0, frame = 0
 309              		@ frame_needed = 0, uses_anonymous_args = 0
 310 0000 10B5     		push	{r4, lr}
 311              	.LCFI7:
 312              		.cfi_def_cfa_offset 8
 313              		.cfi_offset 4, -8
 314              		.cfi_offset 14, -4
 145:Core/Src/ILI9341_STM32_Driver.c **** HAL_GPIO_WritePin(LCD_RST_PORT, LCD_RST_PIN, GPIO_PIN_RESET);
 315              		.loc 1 145 1 view .LVU42
 316 0002 0B4C     		ldr	r4, .L21
 317 0004 0022     		movs	r2, #0
 318 0006 0221     		movs	r1, #2
 319 0008 2046     		mov	r0, r4
 320 000a FFF7FEFF 		bl	HAL_GPIO_WritePin
 321              	.LVL31:
 146:Core/Src/ILI9341_STM32_Driver.c **** HAL_Delay(200);
ARM GAS  C:\Users\zacht\AppData\Local\Temp\ccqG58aR.s 			page 9


 322              		.loc 1 146 1 view .LVU43
 323 000e C820     		movs	r0, #200
 324 0010 FFF7FEFF 		bl	HAL_Delay
 325              	.LVL32:
 147:Core/Src/ILI9341_STM32_Driver.c **** HAL_GPIO_WritePin(LCD_CS_PORT, LCD_CS_PIN, GPIO_PIN_RESET);
 326              		.loc 1 147 1 view .LVU44
 327 0014 0022     		movs	r2, #0
 328 0016 0121     		movs	r1, #1
 329 0018 2046     		mov	r0, r4
 330 001a FFF7FEFF 		bl	HAL_GPIO_WritePin
 331              	.LVL33:
 148:Core/Src/ILI9341_STM32_Driver.c **** HAL_Delay(200);
 332              		.loc 1 148 1 view .LVU45
 333 001e C820     		movs	r0, #200
 334 0020 FFF7FEFF 		bl	HAL_Delay
 335              	.LVL34:
 149:Core/Src/ILI9341_STM32_Driver.c **** HAL_GPIO_WritePin(LCD_RST_PORT, LCD_RST_PIN, GPIO_PIN_SET);	
 336              		.loc 1 149 1 view .LVU46
 337 0024 0122     		movs	r2, #1
 338 0026 0221     		movs	r1, #2
 339 0028 2046     		mov	r0, r4
 340 002a FFF7FEFF 		bl	HAL_GPIO_WritePin
 341              	.LVL35:
 150:Core/Src/ILI9341_STM32_Driver.c **** }
 342              		.loc 1 150 1 is_stmt 0 view .LVU47
 343 002e 10BD     		pop	{r4, pc}
 344              	.L22:
 345              		.align	2
 346              	.L21:
 347 0030 00040240 		.word	1073873920
 348              		.cfi_endproc
 349              	.LFE139:
 351              		.section	.text.ILI9341_Set_Rotation,"ax",%progbits
 352              		.align	1
 353              		.global	ILI9341_Set_Rotation
 354              		.syntax unified
 355              		.thumb
 356              		.thumb_func
 358              	ILI9341_Set_Rotation:
 359              	.LVL36:
 360              	.LFB140:
 151:Core/Src/ILI9341_STM32_Driver.c **** 
 152:Core/Src/ILI9341_STM32_Driver.c **** /*Ser rotation of the screen - changes x0 and y0*/
 153:Core/Src/ILI9341_STM32_Driver.c **** void ILI9341_Set_Rotation(uint8_t Rotation) 
 154:Core/Src/ILI9341_STM32_Driver.c **** {
 361              		.loc 1 154 1 is_stmt 1 view -0
 362              		.cfi_startproc
 363              		@ args = 0, pretend = 0, frame = 0
 364              		@ frame_needed = 0, uses_anonymous_args = 0
 365              		.loc 1 154 1 is_stmt 0 view .LVU49
 366 0000 10B5     		push	{r4, lr}
 367              	.LCFI8:
 368              		.cfi_def_cfa_offset 8
 369              		.cfi_offset 4, -8
 370              		.cfi_offset 14, -4
 371 0002 0446     		mov	r4, r0
 155:Core/Src/ILI9341_STM32_Driver.c **** 	
ARM GAS  C:\Users\zacht\AppData\Local\Temp\ccqG58aR.s 			page 10


 156:Core/Src/ILI9341_STM32_Driver.c **** uint8_t screen_rotation = Rotation;
 372              		.loc 1 156 1 is_stmt 1 view .LVU50
 373              	.LVL37:
 157:Core/Src/ILI9341_STM32_Driver.c **** 
 158:Core/Src/ILI9341_STM32_Driver.c **** ILI9341_Write_Command(0x36);
 374              		.loc 1 158 1 view .LVU51
 375 0004 3620     		movs	r0, #54
 376              	.LVL38:
 377              		.loc 1 158 1 is_stmt 0 view .LVU52
 378 0006 FFF7FEFF 		bl	ILI9341_Write_Command
 379              	.LVL39:
 159:Core/Src/ILI9341_STM32_Driver.c **** HAL_Delay(1);
 380              		.loc 1 159 1 is_stmt 1 view .LVU53
 381 000a 0120     		movs	r0, #1
 382 000c FFF7FEFF 		bl	HAL_Delay
 383              	.LVL40:
 160:Core/Src/ILI9341_STM32_Driver.c **** 	
 161:Core/Src/ILI9341_STM32_Driver.c **** switch(screen_rotation) 
 384              		.loc 1 161 1 view .LVU54
 385 0010 032C     		cmp	r4, #3
 386 0012 0DD8     		bhi	.L23
 387 0014 DFE804F0 		tbb	[pc, r4]
 388              	.L26:
 389 0018 02       		.byte	(.L29-.L26)/2
 390 0019 0D       		.byte	(.L28-.L26)/2
 391 001a 18       		.byte	(.L27-.L26)/2
 392 001b 23       		.byte	(.L25-.L26)/2
 393              		.p2align 1
 394              	.L29:
 162:Core/Src/ILI9341_STM32_Driver.c **** 	{
 163:Core/Src/ILI9341_STM32_Driver.c **** 		case SCREEN_VERTICAL_1:
 164:Core/Src/ILI9341_STM32_Driver.c **** 			ILI9341_Write_Data(0x40|0x08);
 395              		.loc 1 164 4 view .LVU55
 396 001c 4820     		movs	r0, #72
 397 001e FFF7FEFF 		bl	ILI9341_Write_Data
 398              	.LVL41:
 165:Core/Src/ILI9341_STM32_Driver.c **** 			LCD_WIDTH = 240;
 399              		.loc 1 165 4 view .LVU56
 400              		.loc 1 165 14 is_stmt 0 view .LVU57
 401 0022 144B     		ldr	r3, .L31
 402 0024 F022     		movs	r2, #240
 403 0026 1A80     		strh	r2, [r3]	@ movhi
 166:Core/Src/ILI9341_STM32_Driver.c **** 			LCD_HEIGHT = 320;
 404              		.loc 1 166 4 is_stmt 1 view .LVU58
 405              		.loc 1 166 15 is_stmt 0 view .LVU59
 406 0028 134B     		ldr	r3, .L31+4
 407 002a 4FF4A072 		mov	r2, #320
 408 002e 1A80     		strh	r2, [r3]	@ movhi
 167:Core/Src/ILI9341_STM32_Driver.c **** 			break;
 409              		.loc 1 167 4 is_stmt 1 view .LVU60
 410              	.L23:
 168:Core/Src/ILI9341_STM32_Driver.c **** 		case SCREEN_HORIZONTAL_1:
 169:Core/Src/ILI9341_STM32_Driver.c **** 			ILI9341_Write_Data(0x20|0x08);
 170:Core/Src/ILI9341_STM32_Driver.c **** 			LCD_WIDTH  = 320;
 171:Core/Src/ILI9341_STM32_Driver.c **** 			LCD_HEIGHT = 240;
 172:Core/Src/ILI9341_STM32_Driver.c **** 			break;
 173:Core/Src/ILI9341_STM32_Driver.c **** 		case SCREEN_VERTICAL_2:
ARM GAS  C:\Users\zacht\AppData\Local\Temp\ccqG58aR.s 			page 11


 174:Core/Src/ILI9341_STM32_Driver.c **** 			ILI9341_Write_Data(0x80|0x08);
 175:Core/Src/ILI9341_STM32_Driver.c **** 			LCD_WIDTH  = 240;
 176:Core/Src/ILI9341_STM32_Driver.c **** 			LCD_HEIGHT = 320;
 177:Core/Src/ILI9341_STM32_Driver.c **** 			break;
 178:Core/Src/ILI9341_STM32_Driver.c **** 		case SCREEN_HORIZONTAL_2:
 179:Core/Src/ILI9341_STM32_Driver.c **** 			ILI9341_Write_Data(0x40|0x80|0x20|0x08);
 180:Core/Src/ILI9341_STM32_Driver.c **** 			LCD_WIDTH  = 320;
 181:Core/Src/ILI9341_STM32_Driver.c **** 			LCD_HEIGHT = 240;
 182:Core/Src/ILI9341_STM32_Driver.c **** 			break;
 183:Core/Src/ILI9341_STM32_Driver.c **** 		default:
 184:Core/Src/ILI9341_STM32_Driver.c **** 			//EXIT IF SCREEN ROTATION NOT VALID!
 185:Core/Src/ILI9341_STM32_Driver.c **** 			break;
 186:Core/Src/ILI9341_STM32_Driver.c **** 	}
 187:Core/Src/ILI9341_STM32_Driver.c **** }
 411              		.loc 1 187 1 is_stmt 0 view .LVU61
 412 0030 10BD     		pop	{r4, pc}
 413              	.LVL42:
 414              	.L28:
 169:Core/Src/ILI9341_STM32_Driver.c **** 			LCD_WIDTH  = 320;
 415              		.loc 1 169 4 is_stmt 1 view .LVU62
 416 0032 2820     		movs	r0, #40
 417 0034 FFF7FEFF 		bl	ILI9341_Write_Data
 418              	.LVL43:
 170:Core/Src/ILI9341_STM32_Driver.c **** 			LCD_HEIGHT = 240;
 419              		.loc 1 170 4 view .LVU63
 170:Core/Src/ILI9341_STM32_Driver.c **** 			LCD_HEIGHT = 240;
 420              		.loc 1 170 15 is_stmt 0 view .LVU64
 421 0038 0E4B     		ldr	r3, .L31
 422 003a 4FF4A072 		mov	r2, #320
 423 003e 1A80     		strh	r2, [r3]	@ movhi
 171:Core/Src/ILI9341_STM32_Driver.c **** 			break;
 424              		.loc 1 171 4 is_stmt 1 view .LVU65
 171:Core/Src/ILI9341_STM32_Driver.c **** 			break;
 425              		.loc 1 171 15 is_stmt 0 view .LVU66
 426 0040 0D4B     		ldr	r3, .L31+4
 427 0042 F022     		movs	r2, #240
 428 0044 1A80     		strh	r2, [r3]	@ movhi
 172:Core/Src/ILI9341_STM32_Driver.c **** 		case SCREEN_VERTICAL_2:
 429              		.loc 1 172 4 is_stmt 1 view .LVU67
 430 0046 F3E7     		b	.L23
 431              	.L27:
 174:Core/Src/ILI9341_STM32_Driver.c **** 			LCD_WIDTH  = 240;
 432              		.loc 1 174 4 view .LVU68
 433 0048 8820     		movs	r0, #136
 434 004a FFF7FEFF 		bl	ILI9341_Write_Data
 435              	.LVL44:
 175:Core/Src/ILI9341_STM32_Driver.c **** 			LCD_HEIGHT = 320;
 436              		.loc 1 175 4 view .LVU69
 175:Core/Src/ILI9341_STM32_Driver.c **** 			LCD_HEIGHT = 320;
 437              		.loc 1 175 15 is_stmt 0 view .LVU70
 438 004e 094B     		ldr	r3, .L31
 439 0050 F022     		movs	r2, #240
 440 0052 1A80     		strh	r2, [r3]	@ movhi
 176:Core/Src/ILI9341_STM32_Driver.c **** 			break;
 441              		.loc 1 176 4 is_stmt 1 view .LVU71
 176:Core/Src/ILI9341_STM32_Driver.c **** 			break;
 442              		.loc 1 176 15 is_stmt 0 view .LVU72
ARM GAS  C:\Users\zacht\AppData\Local\Temp\ccqG58aR.s 			page 12


 443 0054 084B     		ldr	r3, .L31+4
 444 0056 4FF4A072 		mov	r2, #320
 445 005a 1A80     		strh	r2, [r3]	@ movhi
 177:Core/Src/ILI9341_STM32_Driver.c **** 		case SCREEN_HORIZONTAL_2:
 446              		.loc 1 177 4 is_stmt 1 view .LVU73
 447 005c E8E7     		b	.L23
 448              	.L25:
 179:Core/Src/ILI9341_STM32_Driver.c **** 			LCD_WIDTH  = 320;
 449              		.loc 1 179 4 view .LVU74
 450 005e E820     		movs	r0, #232
 451 0060 FFF7FEFF 		bl	ILI9341_Write_Data
 452              	.LVL45:
 180:Core/Src/ILI9341_STM32_Driver.c **** 			LCD_HEIGHT = 240;
 453              		.loc 1 180 4 view .LVU75
 180:Core/Src/ILI9341_STM32_Driver.c **** 			LCD_HEIGHT = 240;
 454              		.loc 1 180 15 is_stmt 0 view .LVU76
 455 0064 034B     		ldr	r3, .L31
 456 0066 4FF4A072 		mov	r2, #320
 457 006a 1A80     		strh	r2, [r3]	@ movhi
 181:Core/Src/ILI9341_STM32_Driver.c **** 			break;
 458              		.loc 1 181 4 is_stmt 1 view .LVU77
 181:Core/Src/ILI9341_STM32_Driver.c **** 			break;
 459              		.loc 1 181 15 is_stmt 0 view .LVU78
 460 006c 024B     		ldr	r3, .L31+4
 461 006e F022     		movs	r2, #240
 462 0070 1A80     		strh	r2, [r3]	@ movhi
 182:Core/Src/ILI9341_STM32_Driver.c **** 		default:
 463              		.loc 1 182 4 is_stmt 1 view .LVU79
 464              		.loc 1 187 1 is_stmt 0 view .LVU80
 465 0072 DDE7     		b	.L23
 466              	.L32:
 467              		.align	2
 468              	.L31:
 469 0074 00000000 		.word	.LANCHOR0
 470 0078 00000000 		.word	.LANCHOR1
 471              		.cfi_endproc
 472              	.LFE140:
 474              		.section	.text.ILI9341_Enable,"ax",%progbits
 475              		.align	1
 476              		.global	ILI9341_Enable
 477              		.syntax unified
 478              		.thumb
 479              		.thumb_func
 481              	ILI9341_Enable:
 482              	.LFB141:
 188:Core/Src/ILI9341_STM32_Driver.c **** 
 189:Core/Src/ILI9341_STM32_Driver.c **** /*Enable LCD display*/
 190:Core/Src/ILI9341_STM32_Driver.c **** void ILI9341_Enable(void)
 191:Core/Src/ILI9341_STM32_Driver.c **** {
 483              		.loc 1 191 1 is_stmt 1 view -0
 484              		.cfi_startproc
 485              		@ args = 0, pretend = 0, frame = 0
 486              		@ frame_needed = 0, uses_anonymous_args = 0
 487 0000 08B5     		push	{r3, lr}
 488              	.LCFI9:
 489              		.cfi_def_cfa_offset 8
 490              		.cfi_offset 3, -8
ARM GAS  C:\Users\zacht\AppData\Local\Temp\ccqG58aR.s 			page 13


 491              		.cfi_offset 14, -4
 192:Core/Src/ILI9341_STM32_Driver.c **** HAL_GPIO_WritePin(LCD_RST_PORT, LCD_RST_PIN, GPIO_PIN_SET);
 492              		.loc 1 192 1 view .LVU82
 493 0002 0122     		movs	r2, #1
 494 0004 0221     		movs	r1, #2
 495 0006 0248     		ldr	r0, .L35
 496 0008 FFF7FEFF 		bl	HAL_GPIO_WritePin
 497              	.LVL46:
 193:Core/Src/ILI9341_STM32_Driver.c **** }
 498              		.loc 1 193 1 is_stmt 0 view .LVU83
 499 000c 08BD     		pop	{r3, pc}
 500              	.L36:
 501 000e 00BF     		.align	2
 502              	.L35:
 503 0010 00040240 		.word	1073873920
 504              		.cfi_endproc
 505              	.LFE141:
 507              		.section	.text.ILI9341_Draw_Colour,"ax",%progbits
 508              		.align	1
 509              		.global	ILI9341_Draw_Colour
 510              		.syntax unified
 511              		.thumb
 512              		.thumb_func
 514              	ILI9341_Draw_Colour:
 515              	.LVL47:
 516              	.LFB142:
 194:Core/Src/ILI9341_STM32_Driver.c **** 
 195:Core/Src/ILI9341_STM32_Driver.c **** // /*Initialize LCD display*/
 196:Core/Src/ILI9341_STM32_Driver.c **** // void ILI9341_Init(void)
 197:Core/Src/ILI9341_STM32_Driver.c **** // {
 198:Core/Src/ILI9341_STM32_Driver.c **** 
 199:Core/Src/ILI9341_STM32_Driver.c **** // ILI9341_Enable();
 200:Core/Src/ILI9341_STM32_Driver.c **** // ILI9341_SPI_Init();
 201:Core/Src/ILI9341_STM32_Driver.c **** // ILI9341_Reset();
 202:Core/Src/ILI9341_STM32_Driver.c **** 
 203:Core/Src/ILI9341_STM32_Driver.c **** // //SOFTWARE RESET
 204:Core/Src/ILI9341_STM32_Driver.c **** // ILI9341_Write_Command(0x01);
 205:Core/Src/ILI9341_STM32_Driver.c **** // HAL_Delay(1000);
 206:Core/Src/ILI9341_STM32_Driver.c **** 	
 207:Core/Src/ILI9341_STM32_Driver.c **** // //POWER CONTROL A
 208:Core/Src/ILI9341_STM32_Driver.c **** // ILI9341_Write_Command(0xCB);
 209:Core/Src/ILI9341_STM32_Driver.c **** // ILI9341_Write_Data(0x39);
 210:Core/Src/ILI9341_STM32_Driver.c **** // ILI9341_Write_Data(0x2C);
 211:Core/Src/ILI9341_STM32_Driver.c **** // ILI9341_Write_Data(0x00);
 212:Core/Src/ILI9341_STM32_Driver.c **** // ILI9341_Write_Data(0x34);
 213:Core/Src/ILI9341_STM32_Driver.c **** // ILI9341_Write_Data(0x02);
 214:Core/Src/ILI9341_STM32_Driver.c **** 
 215:Core/Src/ILI9341_STM32_Driver.c **** // //POWER CONTROL B
 216:Core/Src/ILI9341_STM32_Driver.c **** // ILI9341_Write_Command(0xCF);
 217:Core/Src/ILI9341_STM32_Driver.c **** // ILI9341_Write_Data(0x00);
 218:Core/Src/ILI9341_STM32_Driver.c **** // ILI9341_Write_Data(0xC1);
 219:Core/Src/ILI9341_STM32_Driver.c **** // ILI9341_Write_Data(0x30);
 220:Core/Src/ILI9341_STM32_Driver.c **** 
 221:Core/Src/ILI9341_STM32_Driver.c **** // //DRIVER TIMING CONTROL A
 222:Core/Src/ILI9341_STM32_Driver.c **** // ILI9341_Write_Command(0xE8);
 223:Core/Src/ILI9341_STM32_Driver.c **** // ILI9341_Write_Data(0x85);
 224:Core/Src/ILI9341_STM32_Driver.c **** // ILI9341_Write_Data(0x00);
ARM GAS  C:\Users\zacht\AppData\Local\Temp\ccqG58aR.s 			page 14


 225:Core/Src/ILI9341_STM32_Driver.c **** // ILI9341_Write_Data(0x78);
 226:Core/Src/ILI9341_STM32_Driver.c **** 
 227:Core/Src/ILI9341_STM32_Driver.c **** // //DRIVER TIMING CONTROL B
 228:Core/Src/ILI9341_STM32_Driver.c **** // ILI9341_Write_Command(0xEA);
 229:Core/Src/ILI9341_STM32_Driver.c **** // ILI9341_Write_Data(0x00);
 230:Core/Src/ILI9341_STM32_Driver.c **** // ILI9341_Write_Data(0x00);
 231:Core/Src/ILI9341_STM32_Driver.c **** 
 232:Core/Src/ILI9341_STM32_Driver.c **** // //POWER ON SEQUENCE CONTROL
 233:Core/Src/ILI9341_STM32_Driver.c **** // ILI9341_Write_Command(0xED);
 234:Core/Src/ILI9341_STM32_Driver.c **** // ILI9341_Write_Data(0x64);
 235:Core/Src/ILI9341_STM32_Driver.c **** // ILI9341_Write_Data(0x03);
 236:Core/Src/ILI9341_STM32_Driver.c **** // ILI9341_Write_Data(0x12);
 237:Core/Src/ILI9341_STM32_Driver.c **** // ILI9341_Write_Data(0x81);
 238:Core/Src/ILI9341_STM32_Driver.c **** 
 239:Core/Src/ILI9341_STM32_Driver.c **** // //PUMP RATIO CONTROL
 240:Core/Src/ILI9341_STM32_Driver.c **** // ILI9341_Write_Command(0xF7);
 241:Core/Src/ILI9341_STM32_Driver.c **** // ILI9341_Write_Data(0x20);
 242:Core/Src/ILI9341_STM32_Driver.c **** 
 243:Core/Src/ILI9341_STM32_Driver.c **** // //POWER CONTROL,VRH[5:0]
 244:Core/Src/ILI9341_STM32_Driver.c **** // ILI9341_Write_Command(0xC0);
 245:Core/Src/ILI9341_STM32_Driver.c **** // ILI9341_Write_Data(0x23);
 246:Core/Src/ILI9341_STM32_Driver.c **** 
 247:Core/Src/ILI9341_STM32_Driver.c **** // //POWER CONTROL,SAP[2:0];BT[3:0]
 248:Core/Src/ILI9341_STM32_Driver.c **** // ILI9341_Write_Command(0xC1);
 249:Core/Src/ILI9341_STM32_Driver.c **** // ILI9341_Write_Data(0x10);
 250:Core/Src/ILI9341_STM32_Driver.c **** 
 251:Core/Src/ILI9341_STM32_Driver.c **** // //VCM CONTROL
 252:Core/Src/ILI9341_STM32_Driver.c **** // ILI9341_Write_Command(0xC5);
 253:Core/Src/ILI9341_STM32_Driver.c **** // ILI9341_Write_Data(0x3E);
 254:Core/Src/ILI9341_STM32_Driver.c **** // ILI9341_Write_Data(0x28);
 255:Core/Src/ILI9341_STM32_Driver.c **** 
 256:Core/Src/ILI9341_STM32_Driver.c **** // //VCM CONTROL 2
 257:Core/Src/ILI9341_STM32_Driver.c **** // ILI9341_Write_Command(0xC7);
 258:Core/Src/ILI9341_STM32_Driver.c **** // ILI9341_Write_Data(0x86);
 259:Core/Src/ILI9341_STM32_Driver.c **** 
 260:Core/Src/ILI9341_STM32_Driver.c **** // //MEMORY ACCESS CONTROL
 261:Core/Src/ILI9341_STM32_Driver.c **** // ILI9341_Write_Command(0x36);
 262:Core/Src/ILI9341_STM32_Driver.c **** // ILI9341_Write_Data(0x48);
 263:Core/Src/ILI9341_STM32_Driver.c **** 
 264:Core/Src/ILI9341_STM32_Driver.c **** // //PIXEL FORMAT
 265:Core/Src/ILI9341_STM32_Driver.c **** // ILI9341_Write_Command(0x3A);
 266:Core/Src/ILI9341_STM32_Driver.c **** // ILI9341_Write_Data(0x55);
 267:Core/Src/ILI9341_STM32_Driver.c **** 
 268:Core/Src/ILI9341_STM32_Driver.c **** // //FRAME RATIO CONTROL, STANDARD RGB COLOR
 269:Core/Src/ILI9341_STM32_Driver.c **** // ILI9341_Write_Command(0xB1);
 270:Core/Src/ILI9341_STM32_Driver.c **** // ILI9341_Write_Data(0x00);
 271:Core/Src/ILI9341_STM32_Driver.c **** // ILI9341_Write_Data(0x18);
 272:Core/Src/ILI9341_STM32_Driver.c **** 
 273:Core/Src/ILI9341_STM32_Driver.c **** // //DISPLAY FUNCTION CONTROL
 274:Core/Src/ILI9341_STM32_Driver.c **** // ILI9341_Write_Command(0xB6);
 275:Core/Src/ILI9341_STM32_Driver.c **** // ILI9341_Write_Data(0x08);
 276:Core/Src/ILI9341_STM32_Driver.c **** // ILI9341_Write_Data(0x82);
 277:Core/Src/ILI9341_STM32_Driver.c **** // ILI9341_Write_Data(0x27);
 278:Core/Src/ILI9341_STM32_Driver.c **** 
 279:Core/Src/ILI9341_STM32_Driver.c **** // //3GAMMA FUNCTION DISABLE
 280:Core/Src/ILI9341_STM32_Driver.c **** // ILI9341_Write_Command(0xF2);
 281:Core/Src/ILI9341_STM32_Driver.c **** // ILI9341_Write_Data(0x00);
ARM GAS  C:\Users\zacht\AppData\Local\Temp\ccqG58aR.s 			page 15


 282:Core/Src/ILI9341_STM32_Driver.c **** 
 283:Core/Src/ILI9341_STM32_Driver.c **** // //GAMMA CURVE SELECTED
 284:Core/Src/ILI9341_STM32_Driver.c **** // ILI9341_Write_Command(0x26);
 285:Core/Src/ILI9341_STM32_Driver.c **** // ILI9341_Write_Data(0x01);
 286:Core/Src/ILI9341_STM32_Driver.c **** 
 287:Core/Src/ILI9341_STM32_Driver.c **** // //POSITIVE GAMMA CORRECTION
 288:Core/Src/ILI9341_STM32_Driver.c **** // ILI9341_Write_Command(0xE0);
 289:Core/Src/ILI9341_STM32_Driver.c **** // ILI9341_Write_Data(0x0F);
 290:Core/Src/ILI9341_STM32_Driver.c **** // ILI9341_Write_Data(0x31);
 291:Core/Src/ILI9341_STM32_Driver.c **** // ILI9341_Write_Data(0x2B);
 292:Core/Src/ILI9341_STM32_Driver.c **** // ILI9341_Write_Data(0x0C);
 293:Core/Src/ILI9341_STM32_Driver.c **** // ILI9341_Write_Data(0x0E);
 294:Core/Src/ILI9341_STM32_Driver.c **** // ILI9341_Write_Data(0x08);
 295:Core/Src/ILI9341_STM32_Driver.c **** // ILI9341_Write_Data(0x4E);
 296:Core/Src/ILI9341_STM32_Driver.c **** // ILI9341_Write_Data(0xF1);
 297:Core/Src/ILI9341_STM32_Driver.c **** // ILI9341_Write_Data(0x37);
 298:Core/Src/ILI9341_STM32_Driver.c **** // ILI9341_Write_Data(0x07);
 299:Core/Src/ILI9341_STM32_Driver.c **** // ILI9341_Write_Data(0x10);
 300:Core/Src/ILI9341_STM32_Driver.c **** // ILI9341_Write_Data(0x03);
 301:Core/Src/ILI9341_STM32_Driver.c **** // ILI9341_Write_Data(0x0E);
 302:Core/Src/ILI9341_STM32_Driver.c **** // ILI9341_Write_Data(0x09);
 303:Core/Src/ILI9341_STM32_Driver.c **** // ILI9341_Write_Data(0x00);
 304:Core/Src/ILI9341_STM32_Driver.c **** 
 305:Core/Src/ILI9341_STM32_Driver.c **** // //NEGATIVE GAMMA CORRECTION
 306:Core/Src/ILI9341_STM32_Driver.c **** // ILI9341_Write_Command(0xE1);
 307:Core/Src/ILI9341_STM32_Driver.c **** // ILI9341_Write_Data(0x00);
 308:Core/Src/ILI9341_STM32_Driver.c **** // ILI9341_Write_Data(0x0E);
 309:Core/Src/ILI9341_STM32_Driver.c **** // ILI9341_Write_Data(0x14);
 310:Core/Src/ILI9341_STM32_Driver.c **** // ILI9341_Write_Data(0x03);
 311:Core/Src/ILI9341_STM32_Driver.c **** // ILI9341_Write_Data(0x11);
 312:Core/Src/ILI9341_STM32_Driver.c **** // ILI9341_Write_Data(0x07);
 313:Core/Src/ILI9341_STM32_Driver.c **** // ILI9341_Write_Data(0x31);
 314:Core/Src/ILI9341_STM32_Driver.c **** // ILI9341_Write_Data(0xC1);
 315:Core/Src/ILI9341_STM32_Driver.c **** // ILI9341_Write_Data(0x48);
 316:Core/Src/ILI9341_STM32_Driver.c **** // ILI9341_Write_Data(0x08);
 317:Core/Src/ILI9341_STM32_Driver.c **** // ILI9341_Write_Data(0x0F);
 318:Core/Src/ILI9341_STM32_Driver.c **** // ILI9341_Write_Data(0x0C);
 319:Core/Src/ILI9341_STM32_Driver.c **** // ILI9341_Write_Data(0x31);
 320:Core/Src/ILI9341_STM32_Driver.c **** // ILI9341_Write_Data(0x36);
 321:Core/Src/ILI9341_STM32_Driver.c **** // ILI9341_Write_Data(0x0F);
 322:Core/Src/ILI9341_STM32_Driver.c **** 
 323:Core/Src/ILI9341_STM32_Driver.c **** // //EXIT SLEEP
 324:Core/Src/ILI9341_STM32_Driver.c **** // ILI9341_Write_Command(0x11);
 325:Core/Src/ILI9341_STM32_Driver.c **** // HAL_Delay(120);
 326:Core/Src/ILI9341_STM32_Driver.c **** 
 327:Core/Src/ILI9341_STM32_Driver.c **** // //TURN ON DISPLAY
 328:Core/Src/ILI9341_STM32_Driver.c **** // ILI9341_Write_Command(0x29);
 329:Core/Src/ILI9341_STM32_Driver.c **** 
 330:Core/Src/ILI9341_STM32_Driver.c **** // //STARTING ROTATION
 331:Core/Src/ILI9341_STM32_Driver.c **** // ILI9341_Set_Rotation(SCREEN_VERTICAL_1);
 332:Core/Src/ILI9341_STM32_Driver.c **** // }
 333:Core/Src/ILI9341_STM32_Driver.c **** 
 334:Core/Src/ILI9341_STM32_Driver.c **** //INTERNAL FUNCTION OF LIBRARY, USAGE NOT RECOMENDED, USE Draw_Pixel INSTEAD
 335:Core/Src/ILI9341_STM32_Driver.c **** /*Sends single pixel colour information to LCD*/
 336:Core/Src/ILI9341_STM32_Driver.c **** void ILI9341_Draw_Colour(uint16_t Colour)
 337:Core/Src/ILI9341_STM32_Driver.c **** {
 517              		.loc 1 337 1 is_stmt 1 view -0
ARM GAS  C:\Users\zacht\AppData\Local\Temp\ccqG58aR.s 			page 16


 518              		.cfi_startproc
 519              		@ args = 0, pretend = 0, frame = 8
 520              		@ frame_needed = 0, uses_anonymous_args = 0
 521              		.loc 1 337 1 is_stmt 0 view .LVU85
 522 0000 10B5     		push	{r4, lr}
 523              	.LCFI10:
 524              		.cfi_def_cfa_offset 8
 525              		.cfi_offset 4, -8
 526              		.cfi_offset 14, -4
 527 0002 82B0     		sub	sp, sp, #8
 528              	.LCFI11:
 529              		.cfi_def_cfa_offset 16
 338:Core/Src/ILI9341_STM32_Driver.c **** //SENDS COLOUR
 339:Core/Src/ILI9341_STM32_Driver.c **** unsigned char TempBuffer[2] = {Colour>>8, Colour};	
 530              		.loc 1 339 1 is_stmt 1 view .LVU86
 531              		.loc 1 339 15 is_stmt 0 view .LVU87
 532 0004 030A     		lsrs	r3, r0, #8
 533 0006 8DF80430 		strb	r3, [sp, #4]
 534 000a 8DF80500 		strb	r0, [sp, #5]
 340:Core/Src/ILI9341_STM32_Driver.c **** HAL_GPIO_WritePin(LCD_DC_PORT, LCD_DC_PIN, GPIO_PIN_SET);	
 535              		.loc 1 340 1 is_stmt 1 view .LVU88
 536 000e 0C4C     		ldr	r4, .L39
 537 0010 0122     		movs	r2, #1
 538 0012 0421     		movs	r1, #4
 539 0014 2046     		mov	r0, r4
 540              	.LVL48:
 541              		.loc 1 340 1 is_stmt 0 view .LVU89
 542 0016 FFF7FEFF 		bl	HAL_GPIO_WritePin
 543              	.LVL49:
 341:Core/Src/ILI9341_STM32_Driver.c **** HAL_GPIO_WritePin(LCD_CS_PORT, LCD_CS_PIN, GPIO_PIN_RESET);
 544              		.loc 1 341 1 is_stmt 1 view .LVU90
 545 001a 0022     		movs	r2, #0
 546 001c 0121     		movs	r1, #1
 547 001e 2046     		mov	r0, r4
 548 0020 FFF7FEFF 		bl	HAL_GPIO_WritePin
 549              	.LVL50:
 342:Core/Src/ILI9341_STM32_Driver.c **** HAL_SPI_Transmit(HSPI_INSTANCE, TempBuffer, 2, 1);	
 550              		.loc 1 342 1 view .LVU91
 551 0024 0123     		movs	r3, #1
 552 0026 0222     		movs	r2, #2
 553 0028 01A9     		add	r1, sp, #4
 554 002a 0648     		ldr	r0, .L39+4
 555 002c FFF7FEFF 		bl	HAL_SPI_Transmit
 556              	.LVL51:
 343:Core/Src/ILI9341_STM32_Driver.c **** HAL_GPIO_WritePin(LCD_CS_PORT, LCD_CS_PIN, GPIO_PIN_SET);
 557              		.loc 1 343 1 view .LVU92
 558 0030 0122     		movs	r2, #1
 559 0032 1146     		mov	r1, r2
 560 0034 2046     		mov	r0, r4
 561 0036 FFF7FEFF 		bl	HAL_GPIO_WritePin
 562              	.LVL52:
 344:Core/Src/ILI9341_STM32_Driver.c **** }
 563              		.loc 1 344 1 is_stmt 0 view .LVU93
 564 003a 02B0     		add	sp, sp, #8
 565              	.LCFI12:
 566              		.cfi_def_cfa_offset 8
 567              		@ sp needed
ARM GAS  C:\Users\zacht\AppData\Local\Temp\ccqG58aR.s 			page 17


 568 003c 10BD     		pop	{r4, pc}
 569              	.L40:
 570 003e 00BF     		.align	2
 571              	.L39:
 572 0040 00040240 		.word	1073873920
 573 0044 00000000 		.word	hspi1
 574              		.cfi_endproc
 575              	.LFE142:
 577              		.section	.text.ILI9341_Draw_Colour_Burst,"ax",%progbits
 578              		.align	1
 579              		.global	ILI9341_Draw_Colour_Burst
 580              		.syntax unified
 581              		.thumb
 582              		.thumb_func
 584              	ILI9341_Draw_Colour_Burst:
 585              	.LVL53:
 586              	.LFB143:
 345:Core/Src/ILI9341_STM32_Driver.c **** 
 346:Core/Src/ILI9341_STM32_Driver.c **** //INTERNAL FUNCTION OF LIBRARY
 347:Core/Src/ILI9341_STM32_Driver.c **** /*Sends block colour information to LCD*/
 348:Core/Src/ILI9341_STM32_Driver.c **** void ILI9341_Draw_Colour_Burst(uint16_t Colour, uint32_t Size)
 349:Core/Src/ILI9341_STM32_Driver.c **** {
 587              		.loc 1 349 1 is_stmt 1 view -0
 588              		.cfi_startproc
 589              		@ args = 0, pretend = 0, frame = 0
 590              		@ frame_needed = 1, uses_anonymous_args = 0
 591              		.loc 1 349 1 is_stmt 0 view .LVU95
 592 0000 2DE9F047 		push	{r4, r5, r6, r7, r8, r9, r10, lr}
 593              	.LCFI13:
 594              		.cfi_def_cfa_offset 32
 595              		.cfi_offset 4, -32
 596              		.cfi_offset 5, -28
 597              		.cfi_offset 6, -24
 598              		.cfi_offset 7, -20
 599              		.cfi_offset 8, -16
 600              		.cfi_offset 9, -12
 601              		.cfi_offset 10, -8
 602              		.cfi_offset 14, -4
 603 0004 00AF     		add	r7, sp, #0
 604              	.LCFI14:
 605              		.cfi_def_cfa_register 7
 606 0006 0646     		mov	r6, r0
 607 0008 0D46     		mov	r5, r1
 350:Core/Src/ILI9341_STM32_Driver.c **** //SENDS COLOUR
 351:Core/Src/ILI9341_STM32_Driver.c **** uint32_t Buffer_Size = 0;
 608              		.loc 1 351 1 is_stmt 1 view .LVU96
 609              	.LVL54:
 352:Core/Src/ILI9341_STM32_Driver.c **** if((Size*2) < BURST_MAX_SIZE)
 610              		.loc 1 352 1 view .LVU97
 611              		.loc 1 352 9 is_stmt 0 view .LVU98
 612 000a 4FEA4108 		lsl	r8, r1, #1
 613              		.loc 1 352 3 view .LVU99
 614 000e B8F5FA7F 		cmp	r8, #500
 615 0012 01D3     		bcc	.L42
 353:Core/Src/ILI9341_STM32_Driver.c **** {
 354:Core/Src/ILI9341_STM32_Driver.c **** 	Buffer_Size = Size;
 355:Core/Src/ILI9341_STM32_Driver.c **** }
ARM GAS  C:\Users\zacht\AppData\Local\Temp\ccqG58aR.s 			page 18


 356:Core/Src/ILI9341_STM32_Driver.c **** else
 357:Core/Src/ILI9341_STM32_Driver.c **** {
 358:Core/Src/ILI9341_STM32_Driver.c **** 	Buffer_Size = BURST_MAX_SIZE;
 616              		.loc 1 358 14 view .LVU100
 617 0014 4FF4FA75 		mov	r5, #500
 618              	.L42:
 619              	.LVL55:
 359:Core/Src/ILI9341_STM32_Driver.c **** }
 360:Core/Src/ILI9341_STM32_Driver.c **** 	
 361:Core/Src/ILI9341_STM32_Driver.c **** HAL_GPIO_WritePin(LCD_DC_PORT, LCD_DC_PIN, GPIO_PIN_SET);	
 620              		.loc 1 361 1 is_stmt 1 view .LVU101
 621 0018 1C4C     		ldr	r4, .L51
 622 001a 0122     		movs	r2, #1
 623 001c 0421     		movs	r1, #4
 624              	.LVL56:
 625              		.loc 1 361 1 is_stmt 0 view .LVU102
 626 001e 2046     		mov	r0, r4
 627              	.LVL57:
 628              		.loc 1 361 1 view .LVU103
 629 0020 FFF7FEFF 		bl	HAL_GPIO_WritePin
 630              	.LVL58:
 362:Core/Src/ILI9341_STM32_Driver.c **** HAL_GPIO_WritePin(LCD_CS_PORT, LCD_CS_PIN, GPIO_PIN_RESET);
 631              		.loc 1 362 1 is_stmt 1 view .LVU104
 632 0024 0022     		movs	r2, #0
 633 0026 0121     		movs	r1, #1
 634 0028 2046     		mov	r0, r4
 635 002a FFF7FEFF 		bl	HAL_GPIO_WritePin
 636              	.LVL59:
 363:Core/Src/ILI9341_STM32_Driver.c **** 
 364:Core/Src/ILI9341_STM32_Driver.c **** unsigned char chifted = 	Colour>>8;;
 637              		.loc 1 364 1 view .LVU105
 638              		.loc 1 364 15 is_stmt 0 view .LVU106
 639 002e 310A     		lsrs	r1, r6, #8
 640              	.LVL60:
 641              		.loc 1 364 36 is_stmt 1 view .LVU107
 365:Core/Src/ILI9341_STM32_Driver.c **** unsigned char burst_buffer[Buffer_Size];
 642              		.loc 1 365 1 view .LVU108
 643              		.loc 1 365 15 is_stmt 0 view .LVU109
 644 0030 EB1D     		adds	r3, r5, #7
 645 0032 23F00703 		bic	r3, r3, #7
 646 0036 ADEB030D 		sub	sp, sp, r3
 647 003a 6C46     		mov	r4, sp
 648              	.LVL61:
 366:Core/Src/ILI9341_STM32_Driver.c **** for(uint32_t j = 0; j < Buffer_Size; j+=2)
 649              		.loc 1 366 1 is_stmt 1 view .LVU110
 650              	.LBB2:
 651              		.loc 1 366 5 view .LVU111
 652              		.loc 1 366 14 is_stmt 0 view .LVU112
 653 003c 0023     		movs	r3, #0
 654              		.loc 1 366 1 view .LVU113
 655 003e 03E0     		b	.L43
 656              	.LVL62:
 657              	.L44:
 367:Core/Src/ILI9341_STM32_Driver.c **** 	{
 368:Core/Src/ILI9341_STM32_Driver.c **** 		burst_buffer[j] = 	chifted;
 658              		.loc 1 368 3 is_stmt 1 discriminator 3 view .LVU114
 659              		.loc 1 368 19 is_stmt 0 discriminator 3 view .LVU115
ARM GAS  C:\Users\zacht\AppData\Local\Temp\ccqG58aR.s 			page 19


 660 0040 E154     		strb	r1, [r4, r3]
 369:Core/Src/ILI9341_STM32_Driver.c **** 		burst_buffer[j+1] = Colour;
 661              		.loc 1 369 3 is_stmt 1 discriminator 3 view .LVU116
 662              		.loc 1 369 17 is_stmt 0 discriminator 3 view .LVU117
 663 0042 5A1C     		adds	r2, r3, #1
 664              		.loc 1 369 21 discriminator 3 view .LVU118
 665 0044 A654     		strb	r6, [r4, r2]
 366:Core/Src/ILI9341_STM32_Driver.c **** for(uint32_t j = 0; j < Buffer_Size; j+=2)
 666              		.loc 1 366 38 is_stmt 1 discriminator 3 view .LVU119
 366:Core/Src/ILI9341_STM32_Driver.c **** for(uint32_t j = 0; j < Buffer_Size; j+=2)
 667              		.loc 1 366 39 is_stmt 0 discriminator 3 view .LVU120
 668 0046 0233     		adds	r3, r3, #2
 669              	.LVL63:
 670              	.L43:
 366:Core/Src/ILI9341_STM32_Driver.c **** for(uint32_t j = 0; j < Buffer_Size; j+=2)
 671              		.loc 1 366 21 is_stmt 1 discriminator 1 view .LVU121
 366:Core/Src/ILI9341_STM32_Driver.c **** for(uint32_t j = 0; j < Buffer_Size; j+=2)
 672              		.loc 1 366 1 is_stmt 0 discriminator 1 view .LVU122
 673 0048 AB42     		cmp	r3, r5
 674 004a F9D3     		bcc	.L44
 675              	.LBE2:
 370:Core/Src/ILI9341_STM32_Driver.c **** 	}
 371:Core/Src/ILI9341_STM32_Driver.c **** 
 372:Core/Src/ILI9341_STM32_Driver.c **** uint32_t Sending_Size = Size*2;
 676              		.loc 1 372 1 is_stmt 1 view .LVU123
 677              	.LVL64:
 373:Core/Src/ILI9341_STM32_Driver.c **** uint32_t Sending_in_Block = Sending_Size/Buffer_Size;
 678              		.loc 1 373 1 view .LVU124
 679              		.loc 1 373 10 is_stmt 0 view .LVU125
 680 004c B8FBF5F9 		udiv	r9, r8, r5
 681              	.LVL65:
 374:Core/Src/ILI9341_STM32_Driver.c **** uint32_t Remainder_from_block = Sending_Size%Buffer_Size;
 682              		.loc 1 374 1 is_stmt 1 view .LVU126
 683              		.loc 1 374 10 is_stmt 0 view .LVU127
 684 0050 05FB198A 		mls	r10, r5, r9, r8
 685              	.LVL66:
 375:Core/Src/ILI9341_STM32_Driver.c **** 
 376:Core/Src/ILI9341_STM32_Driver.c **** if(Sending_in_Block != 0)
 686              		.loc 1 376 1 is_stmt 1 view .LVU128
 687              		.loc 1 376 3 is_stmt 0 view .LVU129
 688 0054 A845     		cmp	r8, r5
 689 0056 0ED2     		bcs	.L49
 690              	.LVL67:
 691              	.L46:
 377:Core/Src/ILI9341_STM32_Driver.c **** {
 378:Core/Src/ILI9341_STM32_Driver.c **** 	for(uint32_t j = 0; j < (Sending_in_Block); j++)
 379:Core/Src/ILI9341_STM32_Driver.c **** 		{
 380:Core/Src/ILI9341_STM32_Driver.c **** 		HAL_SPI_Transmit(HSPI_INSTANCE, (unsigned char *)burst_buffer, Buffer_Size, 10);	
 381:Core/Src/ILI9341_STM32_Driver.c **** 		}
 382:Core/Src/ILI9341_STM32_Driver.c **** }
 383:Core/Src/ILI9341_STM32_Driver.c **** 
 384:Core/Src/ILI9341_STM32_Driver.c **** //REMAINDER!
 385:Core/Src/ILI9341_STM32_Driver.c **** HAL_SPI_Transmit(HSPI_INSTANCE, (unsigned char *)burst_buffer, Remainder_from_block, 10);	
 692              		.loc 1 385 1 is_stmt 1 view .LVU130
 693 0058 0A23     		movs	r3, #10
 694 005a 1FFA8AF2 		uxth	r2, r10
 695 005e 2146     		mov	r1, r4
ARM GAS  C:\Users\zacht\AppData\Local\Temp\ccqG58aR.s 			page 20


 696 0060 0B48     		ldr	r0, .L51+4
 697 0062 FFF7FEFF 		bl	HAL_SPI_Transmit
 698              	.LVL68:
 386:Core/Src/ILI9341_STM32_Driver.c **** 	
 387:Core/Src/ILI9341_STM32_Driver.c **** HAL_GPIO_WritePin(LCD_CS_PORT, LCD_CS_PIN, GPIO_PIN_SET);
 699              		.loc 1 387 1 view .LVU131
 700 0066 0122     		movs	r2, #1
 701 0068 1146     		mov	r1, r2
 702 006a 0848     		ldr	r0, .L51
 703 006c FFF7FEFF 		bl	HAL_GPIO_WritePin
 704              	.LVL69:
 388:Core/Src/ILI9341_STM32_Driver.c **** }
 705              		.loc 1 388 1 is_stmt 0 view .LVU132
 706 0070 BD46     		mov	sp, r7
 707              	.LCFI15:
 708              		.cfi_remember_state
 709              		.cfi_def_cfa_register 13
 710              		@ sp needed
 711 0072 BDE8F087 		pop	{r4, r5, r6, r7, r8, r9, r10, pc}
 712              	.LVL70:
 713              	.L49:
 714              	.LCFI16:
 715              		.cfi_restore_state
 716              	.LBB3:
 378:Core/Src/ILI9341_STM32_Driver.c **** 		{
 717              		.loc 1 378 15 view .LVU133
 718 0076 0026     		movs	r6, #0
 719              	.LVL71:
 720              	.L45:
 378:Core/Src/ILI9341_STM32_Driver.c **** 		{
 721              		.loc 1 378 22 is_stmt 1 discriminator 1 view .LVU134
 378:Core/Src/ILI9341_STM32_Driver.c **** 		{
 722              		.loc 1 378 2 is_stmt 0 discriminator 1 view .LVU135
 723 0078 4E45     		cmp	r6, r9
 724 007a EDD2     		bcs	.L46
 380:Core/Src/ILI9341_STM32_Driver.c **** 		}
 725              		.loc 1 380 3 is_stmt 1 discriminator 3 view .LVU136
 726 007c 0A23     		movs	r3, #10
 727 007e AAB2     		uxth	r2, r5
 728 0080 2146     		mov	r1, r4
 729 0082 0348     		ldr	r0, .L51+4
 730 0084 FFF7FEFF 		bl	HAL_SPI_Transmit
 731              	.LVL72:
 378:Core/Src/ILI9341_STM32_Driver.c **** 		{
 732              		.loc 1 378 46 discriminator 3 view .LVU137
 378:Core/Src/ILI9341_STM32_Driver.c **** 		{
 733              		.loc 1 378 47 is_stmt 0 discriminator 3 view .LVU138
 734 0088 0136     		adds	r6, r6, #1
 735              	.LVL73:
 378:Core/Src/ILI9341_STM32_Driver.c **** 		{
 736              		.loc 1 378 47 discriminator 3 view .LVU139
 737 008a F5E7     		b	.L45
 738              	.L52:
 739              		.align	2
 740              	.L51:
 741 008c 00040240 		.word	1073873920
 742 0090 00000000 		.word	hspi1
ARM GAS  C:\Users\zacht\AppData\Local\Temp\ccqG58aR.s 			page 21


 743              	.LBE3:
 744              		.cfi_endproc
 745              	.LFE143:
 747              		.section	.text.ILI9341_Fill_Screen,"ax",%progbits
 748              		.align	1
 749              		.global	ILI9341_Fill_Screen
 750              		.syntax unified
 751              		.thumb
 752              		.thumb_func
 754              	ILI9341_Fill_Screen:
 755              	.LVL74:
 756              	.LFB144:
 389:Core/Src/ILI9341_STM32_Driver.c **** 
 390:Core/Src/ILI9341_STM32_Driver.c **** //FILL THE ENTIRE SCREEN WITH SELECTED COLOUR (either #define-d ones or custom 16bit)
 391:Core/Src/ILI9341_STM32_Driver.c **** /*Sets address (entire screen) and Sends Height*Width ammount of colour information to LCD*/
 392:Core/Src/ILI9341_STM32_Driver.c **** void ILI9341_Fill_Screen(uint16_t Colour)
 393:Core/Src/ILI9341_STM32_Driver.c **** {
 757              		.loc 1 393 1 is_stmt 1 view -0
 758              		.cfi_startproc
 759              		@ args = 0, pretend = 0, frame = 0
 760              		@ frame_needed = 0, uses_anonymous_args = 0
 761              		.loc 1 393 1 is_stmt 0 view .LVU141
 762 0000 70B5     		push	{r4, r5, r6, lr}
 763              	.LCFI17:
 764              		.cfi_def_cfa_offset 16
 765              		.cfi_offset 4, -16
 766              		.cfi_offset 5, -12
 767              		.cfi_offset 6, -8
 768              		.cfi_offset 14, -4
 769 0002 0446     		mov	r4, r0
 394:Core/Src/ILI9341_STM32_Driver.c **** ILI9341_Set_Address(0,0,LCD_WIDTH,LCD_HEIGHT);	
 770              		.loc 1 394 1 is_stmt 1 view .LVU142
 771 0004 094E     		ldr	r6, .L55
 772 0006 3288     		ldrh	r2, [r6]
 773 0008 094D     		ldr	r5, .L55+4
 774 000a 2B88     		ldrh	r3, [r5]
 775 000c 9BB2     		uxth	r3, r3
 776 000e 92B2     		uxth	r2, r2
 777 0010 0021     		movs	r1, #0
 778 0012 0846     		mov	r0, r1
 779              	.LVL75:
 780              		.loc 1 394 1 is_stmt 0 view .LVU143
 781 0014 FFF7FEFF 		bl	ILI9341_Set_Address
 782              	.LVL76:
 395:Core/Src/ILI9341_STM32_Driver.c **** ILI9341_Draw_Colour_Burst(Colour, LCD_WIDTH*LCD_HEIGHT);	
 783              		.loc 1 395 1 is_stmt 1 view .LVU144
 784              		.loc 1 395 44 is_stmt 0 view .LVU145
 785 0018 3388     		ldrh	r3, [r6]
 786 001a 9BB2     		uxth	r3, r3
 787 001c 2988     		ldrh	r1, [r5]
 788 001e 89B2     		uxth	r1, r1
 789              		.loc 1 395 1 view .LVU146
 790 0020 03FB01F1 		mul	r1, r3, r1
 791 0024 2046     		mov	r0, r4
 792 0026 FFF7FEFF 		bl	ILI9341_Draw_Colour_Burst
 793              	.LVL77:
 396:Core/Src/ILI9341_STM32_Driver.c **** }
ARM GAS  C:\Users\zacht\AppData\Local\Temp\ccqG58aR.s 			page 22


 794              		.loc 1 396 1 view .LVU147
 795 002a 70BD     		pop	{r4, r5, r6, pc}
 796              	.L56:
 797              		.align	2
 798              	.L55:
 799 002c 00000000 		.word	.LANCHOR0
 800 0030 00000000 		.word	.LANCHOR1
 801              		.cfi_endproc
 802              	.LFE144:
 804              		.section	.text.ILI9341_Draw_Pixel,"ax",%progbits
 805              		.align	1
 806              		.global	ILI9341_Draw_Pixel
 807              		.syntax unified
 808              		.thumb
 809              		.thumb_func
 811              	ILI9341_Draw_Pixel:
 812              	.LVL78:
 813              	.LFB145:
 397:Core/Src/ILI9341_STM32_Driver.c **** 
 398:Core/Src/ILI9341_STM32_Driver.c **** //DRAW PIXEL AT XY POSITION WITH SELECTED COLOUR
 399:Core/Src/ILI9341_STM32_Driver.c **** //
 400:Core/Src/ILI9341_STM32_Driver.c **** //Location is dependant on screen orientation. x0 and y0 locations change with orientations.
 401:Core/Src/ILI9341_STM32_Driver.c **** //Using pixels to draw big simple structures is not recommended as it is really slow
 402:Core/Src/ILI9341_STM32_Driver.c **** //Try using either rectangles or lines if possible
 403:Core/Src/ILI9341_STM32_Driver.c **** //
 404:Core/Src/ILI9341_STM32_Driver.c **** void ILI9341_Draw_Pixel(uint16_t X,uint16_t Y,uint16_t Colour) 
 405:Core/Src/ILI9341_STM32_Driver.c **** {
 814              		.loc 1 405 1 is_stmt 1 view -0
 815              		.cfi_startproc
 816              		@ args = 0, pretend = 0, frame = 16
 817              		@ frame_needed = 0, uses_anonymous_args = 0
 406:Core/Src/ILI9341_STM32_Driver.c **** if((X >=LCD_WIDTH) || (Y >=LCD_HEIGHT)) return;	//OUT OF BOUNDS!
 818              		.loc 1 406 1 view .LVU149
 819              		.loc 1 406 7 is_stmt 0 view .LVU150
 820 0000 544B     		ldr	r3, .L66
 821 0002 1B88     		ldrh	r3, [r3]
 822 0004 9BB2     		uxth	r3, r3
 823              		.loc 1 406 3 view .LVU151
 824 0006 8342     		cmp	r3, r0
 825 0008 40F2A380 		bls	.L62
 405:Core/Src/ILI9341_STM32_Driver.c **** if((X >=LCD_WIDTH) || (Y >=LCD_HEIGHT)) return;	//OUT OF BOUNDS!
 826              		.loc 1 405 1 discriminator 2 view .LVU152
 827 000c F0B5     		push	{r4, r5, r6, r7, lr}
 828              	.LCFI18:
 829              		.cfi_def_cfa_offset 20
 830              		.cfi_offset 4, -20
 831              		.cfi_offset 5, -16
 832              		.cfi_offset 6, -12
 833              		.cfi_offset 7, -8
 834              		.cfi_offset 14, -4
 835 000e 85B0     		sub	sp, sp, #20
 836              	.LCFI19:
 837              		.cfi_def_cfa_offset 40
 838 0010 0446     		mov	r4, r0
 839 0012 0E46     		mov	r6, r1
 840 0014 1746     		mov	r7, r2
 841              		.loc 1 406 26 discriminator 2 view .LVU153
ARM GAS  C:\Users\zacht\AppData\Local\Temp\ccqG58aR.s 			page 23


 842 0016 504B     		ldr	r3, .L66+4
 843 0018 1B88     		ldrh	r3, [r3]
 844 001a 9BB2     		uxth	r3, r3
 845              		.loc 1 406 20 discriminator 2 view .LVU154
 846 001c 8B42     		cmp	r3, r1
 847 001e 01D8     		bhi	.L65
 848              	.LVL79:
 849              	.L57:
 407:Core/Src/ILI9341_STM32_Driver.c **** 	
 408:Core/Src/ILI9341_STM32_Driver.c **** //ADDRESS
 409:Core/Src/ILI9341_STM32_Driver.c **** HAL_GPIO_WritePin(LCD_DC_PORT, LCD_DC_PIN, GPIO_PIN_RESET);	
 410:Core/Src/ILI9341_STM32_Driver.c **** HAL_GPIO_WritePin(LCD_CS_PORT, LCD_CS_PIN, GPIO_PIN_RESET);
 411:Core/Src/ILI9341_STM32_Driver.c **** ILI9341_SPI_Send(0x2A);
 412:Core/Src/ILI9341_STM32_Driver.c **** HAL_GPIO_WritePin(LCD_DC_PORT, LCD_DC_PIN, GPIO_PIN_SET);	
 413:Core/Src/ILI9341_STM32_Driver.c **** HAL_GPIO_WritePin(LCD_CS_PORT, LCD_CS_PIN, GPIO_PIN_SET);		
 414:Core/Src/ILI9341_STM32_Driver.c **** 
 415:Core/Src/ILI9341_STM32_Driver.c **** //XDATA
 416:Core/Src/ILI9341_STM32_Driver.c **** HAL_GPIO_WritePin(LCD_CS_PORT, LCD_CS_PIN, GPIO_PIN_RESET);	
 417:Core/Src/ILI9341_STM32_Driver.c **** unsigned char Temp_Buffer[4] = {X>>8,X, (X+1)>>8, (X+1)};
 418:Core/Src/ILI9341_STM32_Driver.c **** HAL_SPI_Transmit(HSPI_INSTANCE, Temp_Buffer, 4, 1);
 419:Core/Src/ILI9341_STM32_Driver.c **** HAL_GPIO_WritePin(LCD_CS_PORT, LCD_CS_PIN, GPIO_PIN_SET);
 420:Core/Src/ILI9341_STM32_Driver.c **** 
 421:Core/Src/ILI9341_STM32_Driver.c **** //ADDRESS
 422:Core/Src/ILI9341_STM32_Driver.c **** HAL_GPIO_WritePin(LCD_DC_PORT, LCD_DC_PIN, GPIO_PIN_RESET);	
 423:Core/Src/ILI9341_STM32_Driver.c **** HAL_GPIO_WritePin(LCD_CS_PORT, LCD_CS_PIN, GPIO_PIN_RESET);	
 424:Core/Src/ILI9341_STM32_Driver.c **** ILI9341_SPI_Send(0x2B);
 425:Core/Src/ILI9341_STM32_Driver.c **** HAL_GPIO_WritePin(LCD_DC_PORT, LCD_DC_PIN, GPIO_PIN_SET);			
 426:Core/Src/ILI9341_STM32_Driver.c **** HAL_GPIO_WritePin(LCD_CS_PORT, LCD_CS_PIN, GPIO_PIN_SET);			
 427:Core/Src/ILI9341_STM32_Driver.c **** 
 428:Core/Src/ILI9341_STM32_Driver.c **** //YDATA
 429:Core/Src/ILI9341_STM32_Driver.c **** HAL_GPIO_WritePin(LCD_CS_PORT, LCD_CS_PIN, GPIO_PIN_RESET);
 430:Core/Src/ILI9341_STM32_Driver.c **** unsigned char Temp_Buffer1[4] = {Y>>8,Y, (Y+1)>>8, (Y+1)};
 431:Core/Src/ILI9341_STM32_Driver.c **** HAL_SPI_Transmit(HSPI_INSTANCE, Temp_Buffer1, 4, 1);
 432:Core/Src/ILI9341_STM32_Driver.c **** HAL_GPIO_WritePin(LCD_CS_PORT, LCD_CS_PIN, GPIO_PIN_SET);
 433:Core/Src/ILI9341_STM32_Driver.c **** 
 434:Core/Src/ILI9341_STM32_Driver.c **** //ADDRESS	
 435:Core/Src/ILI9341_STM32_Driver.c **** HAL_GPIO_WritePin(LCD_DC_PORT, LCD_DC_PIN, GPIO_PIN_RESET);	
 436:Core/Src/ILI9341_STM32_Driver.c **** HAL_GPIO_WritePin(LCD_CS_PORT, LCD_CS_PIN, GPIO_PIN_RESET);	
 437:Core/Src/ILI9341_STM32_Driver.c **** ILI9341_SPI_Send(0x2C);
 438:Core/Src/ILI9341_STM32_Driver.c **** HAL_GPIO_WritePin(LCD_DC_PORT, LCD_DC_PIN, GPIO_PIN_SET);			
 439:Core/Src/ILI9341_STM32_Driver.c **** HAL_GPIO_WritePin(LCD_CS_PORT, LCD_CS_PIN, GPIO_PIN_SET);			
 440:Core/Src/ILI9341_STM32_Driver.c **** 
 441:Core/Src/ILI9341_STM32_Driver.c **** //COLOUR	
 442:Core/Src/ILI9341_STM32_Driver.c **** HAL_GPIO_WritePin(LCD_CS_PORT, LCD_CS_PIN, GPIO_PIN_RESET);
 443:Core/Src/ILI9341_STM32_Driver.c **** unsigned char Temp_Buffer2[2] = {Colour>>8, Colour};
 444:Core/Src/ILI9341_STM32_Driver.c **** HAL_SPI_Transmit(HSPI_INSTANCE, Temp_Buffer2, 2, 1);
 445:Core/Src/ILI9341_STM32_Driver.c **** HAL_GPIO_WritePin(LCD_CS_PORT, LCD_CS_PIN, GPIO_PIN_SET);
 446:Core/Src/ILI9341_STM32_Driver.c **** 	
 447:Core/Src/ILI9341_STM32_Driver.c **** }
 850              		.loc 1 447 1 view .LVU155
 851 0020 05B0     		add	sp, sp, #20
 852              	.LCFI20:
 853              		.cfi_remember_state
 854              		.cfi_def_cfa_offset 20
 855              		@ sp needed
 856 0022 F0BD     		pop	{r4, r5, r6, r7, pc}
 857              	.LVL80:
ARM GAS  C:\Users\zacht\AppData\Local\Temp\ccqG58aR.s 			page 24


 858              	.L65:
 859              	.LCFI21:
 860              		.cfi_restore_state
 409:Core/Src/ILI9341_STM32_Driver.c **** HAL_GPIO_WritePin(LCD_CS_PORT, LCD_CS_PIN, GPIO_PIN_RESET);
 861              		.loc 1 409 1 is_stmt 1 view .LVU156
 862 0024 4D4D     		ldr	r5, .L66+8
 863 0026 0022     		movs	r2, #0
 864              	.LVL81:
 409:Core/Src/ILI9341_STM32_Driver.c **** HAL_GPIO_WritePin(LCD_CS_PORT, LCD_CS_PIN, GPIO_PIN_RESET);
 865              		.loc 1 409 1 is_stmt 0 view .LVU157
 866 0028 0421     		movs	r1, #4
 867              	.LVL82:
 409:Core/Src/ILI9341_STM32_Driver.c **** HAL_GPIO_WritePin(LCD_CS_PORT, LCD_CS_PIN, GPIO_PIN_RESET);
 868              		.loc 1 409 1 view .LVU158
 869 002a 2846     		mov	r0, r5
 870              	.LVL83:
 409:Core/Src/ILI9341_STM32_Driver.c **** HAL_GPIO_WritePin(LCD_CS_PORT, LCD_CS_PIN, GPIO_PIN_RESET);
 871              		.loc 1 409 1 view .LVU159
 872 002c FFF7FEFF 		bl	HAL_GPIO_WritePin
 873              	.LVL84:
 410:Core/Src/ILI9341_STM32_Driver.c **** ILI9341_SPI_Send(0x2A);
 874              		.loc 1 410 1 is_stmt 1 view .LVU160
 875 0030 0022     		movs	r2, #0
 876 0032 0121     		movs	r1, #1
 877 0034 2846     		mov	r0, r5
 878 0036 FFF7FEFF 		bl	HAL_GPIO_WritePin
 879              	.LVL85:
 411:Core/Src/ILI9341_STM32_Driver.c **** HAL_GPIO_WritePin(LCD_DC_PORT, LCD_DC_PIN, GPIO_PIN_SET);	
 880              		.loc 1 411 1 view .LVU161
 881 003a 2A20     		movs	r0, #42
 882 003c FFF7FEFF 		bl	ILI9341_SPI_Send
 883              	.LVL86:
 412:Core/Src/ILI9341_STM32_Driver.c **** HAL_GPIO_WritePin(LCD_CS_PORT, LCD_CS_PIN, GPIO_PIN_SET);		
 884              		.loc 1 412 1 view .LVU162
 885 0040 0122     		movs	r2, #1
 886 0042 0421     		movs	r1, #4
 887 0044 2846     		mov	r0, r5
 888 0046 FFF7FEFF 		bl	HAL_GPIO_WritePin
 889              	.LVL87:
 413:Core/Src/ILI9341_STM32_Driver.c **** 
 890              		.loc 1 413 1 view .LVU163
 891 004a 0122     		movs	r2, #1
 892 004c 1146     		mov	r1, r2
 893 004e 2846     		mov	r0, r5
 894 0050 FFF7FEFF 		bl	HAL_GPIO_WritePin
 895              	.LVL88:
 416:Core/Src/ILI9341_STM32_Driver.c **** unsigned char Temp_Buffer[4] = {X>>8,X, (X+1)>>8, (X+1)};
 896              		.loc 1 416 1 view .LVU164
 897 0054 0022     		movs	r2, #0
 898 0056 0121     		movs	r1, #1
 899 0058 2846     		mov	r0, r5
 900 005a FFF7FEFF 		bl	HAL_GPIO_WritePin
 901              	.LVL89:
 417:Core/Src/ILI9341_STM32_Driver.c **** HAL_SPI_Transmit(HSPI_INSTANCE, Temp_Buffer, 4, 1);
 902              		.loc 1 417 1 view .LVU165
 417:Core/Src/ILI9341_STM32_Driver.c **** HAL_SPI_Transmit(HSPI_INSTANCE, Temp_Buffer, 4, 1);
 903              		.loc 1 417 15 is_stmt 0 view .LVU166
ARM GAS  C:\Users\zacht\AppData\Local\Temp\ccqG58aR.s 			page 25


 904 005e 230A     		lsrs	r3, r4, #8
 905 0060 8DF80C30 		strb	r3, [sp, #12]
 906 0064 E3B2     		uxtb	r3, r4
 907 0066 8DF80D30 		strb	r3, [sp, #13]
 417:Core/Src/ILI9341_STM32_Driver.c **** HAL_SPI_Transmit(HSPI_INSTANCE, Temp_Buffer, 4, 1);
 908              		.loc 1 417 43 view .LVU167
 909 006a 0134     		adds	r4, r4, #1
 417:Core/Src/ILI9341_STM32_Driver.c **** HAL_SPI_Transmit(HSPI_INSTANCE, Temp_Buffer, 4, 1);
 910              		.loc 1 417 46 view .LVU168
 911 006c 2412     		asrs	r4, r4, #8
 417:Core/Src/ILI9341_STM32_Driver.c **** HAL_SPI_Transmit(HSPI_INSTANCE, Temp_Buffer, 4, 1);
 912              		.loc 1 417 15 view .LVU169
 913 006e 8DF80E40 		strb	r4, [sp, #14]
 417:Core/Src/ILI9341_STM32_Driver.c **** HAL_SPI_Transmit(HSPI_INSTANCE, Temp_Buffer, 4, 1);
 914              		.loc 1 417 53 view .LVU170
 915 0072 0133     		adds	r3, r3, #1
 417:Core/Src/ILI9341_STM32_Driver.c **** HAL_SPI_Transmit(HSPI_INSTANCE, Temp_Buffer, 4, 1);
 916              		.loc 1 417 15 view .LVU171
 917 0074 8DF80F30 		strb	r3, [sp, #15]
 418:Core/Src/ILI9341_STM32_Driver.c **** HAL_GPIO_WritePin(LCD_CS_PORT, LCD_CS_PIN, GPIO_PIN_SET);
 918              		.loc 1 418 1 is_stmt 1 view .LVU172
 919 0078 394C     		ldr	r4, .L66+12
 920 007a 0123     		movs	r3, #1
 921 007c 0422     		movs	r2, #4
 922 007e 03A9     		add	r1, sp, #12
 923 0080 2046     		mov	r0, r4
 924 0082 FFF7FEFF 		bl	HAL_SPI_Transmit
 925              	.LVL90:
 419:Core/Src/ILI9341_STM32_Driver.c **** 
 926              		.loc 1 419 1 view .LVU173
 927 0086 0122     		movs	r2, #1
 928 0088 1146     		mov	r1, r2
 929 008a 2846     		mov	r0, r5
 930 008c FFF7FEFF 		bl	HAL_GPIO_WritePin
 931              	.LVL91:
 422:Core/Src/ILI9341_STM32_Driver.c **** HAL_GPIO_WritePin(LCD_CS_PORT, LCD_CS_PIN, GPIO_PIN_RESET);	
 932              		.loc 1 422 1 view .LVU174
 933 0090 0022     		movs	r2, #0
 934 0092 0421     		movs	r1, #4
 935 0094 2846     		mov	r0, r5
 936 0096 FFF7FEFF 		bl	HAL_GPIO_WritePin
 937              	.LVL92:
 423:Core/Src/ILI9341_STM32_Driver.c **** ILI9341_SPI_Send(0x2B);
 938              		.loc 1 423 1 view .LVU175
 939 009a 0022     		movs	r2, #0
 940 009c 0121     		movs	r1, #1
 941 009e 2846     		mov	r0, r5
 942 00a0 FFF7FEFF 		bl	HAL_GPIO_WritePin
 943              	.LVL93:
 424:Core/Src/ILI9341_STM32_Driver.c **** HAL_GPIO_WritePin(LCD_DC_PORT, LCD_DC_PIN, GPIO_PIN_SET);			
 944              		.loc 1 424 1 view .LVU176
 945 00a4 2B20     		movs	r0, #43
 946 00a6 FFF7FEFF 		bl	ILI9341_SPI_Send
 947              	.LVL94:
 425:Core/Src/ILI9341_STM32_Driver.c **** HAL_GPIO_WritePin(LCD_CS_PORT, LCD_CS_PIN, GPIO_PIN_SET);			
 948              		.loc 1 425 1 view .LVU177
 949 00aa 0122     		movs	r2, #1
ARM GAS  C:\Users\zacht\AppData\Local\Temp\ccqG58aR.s 			page 26


 950 00ac 0421     		movs	r1, #4
 951 00ae 2846     		mov	r0, r5
 952 00b0 FFF7FEFF 		bl	HAL_GPIO_WritePin
 953              	.LVL95:
 426:Core/Src/ILI9341_STM32_Driver.c **** 
 954              		.loc 1 426 1 view .LVU178
 955 00b4 0122     		movs	r2, #1
 956 00b6 1146     		mov	r1, r2
 957 00b8 2846     		mov	r0, r5
 958 00ba FFF7FEFF 		bl	HAL_GPIO_WritePin
 959              	.LVL96:
 429:Core/Src/ILI9341_STM32_Driver.c **** unsigned char Temp_Buffer1[4] = {Y>>8,Y, (Y+1)>>8, (Y+1)};
 960              		.loc 1 429 1 view .LVU179
 961 00be 0022     		movs	r2, #0
 962 00c0 0121     		movs	r1, #1
 963 00c2 2846     		mov	r0, r5
 964 00c4 FFF7FEFF 		bl	HAL_GPIO_WritePin
 965              	.LVL97:
 430:Core/Src/ILI9341_STM32_Driver.c **** HAL_SPI_Transmit(HSPI_INSTANCE, Temp_Buffer1, 4, 1);
 966              		.loc 1 430 1 view .LVU180
 430:Core/Src/ILI9341_STM32_Driver.c **** HAL_SPI_Transmit(HSPI_INSTANCE, Temp_Buffer1, 4, 1);
 967              		.loc 1 430 15 is_stmt 0 view .LVU181
 968 00c8 330A     		lsrs	r3, r6, #8
 969 00ca 8DF80830 		strb	r3, [sp, #8]
 970 00ce F3B2     		uxtb	r3, r6
 971 00d0 8DF80930 		strb	r3, [sp, #9]
 430:Core/Src/ILI9341_STM32_Driver.c **** HAL_SPI_Transmit(HSPI_INSTANCE, Temp_Buffer1, 4, 1);
 972              		.loc 1 430 44 view .LVU182
 973 00d4 0136     		adds	r6, r6, #1
 430:Core/Src/ILI9341_STM32_Driver.c **** HAL_SPI_Transmit(HSPI_INSTANCE, Temp_Buffer1, 4, 1);
 974              		.loc 1 430 47 view .LVU183
 975 00d6 3612     		asrs	r6, r6, #8
 430:Core/Src/ILI9341_STM32_Driver.c **** HAL_SPI_Transmit(HSPI_INSTANCE, Temp_Buffer1, 4, 1);
 976              		.loc 1 430 15 view .LVU184
 977 00d8 8DF80A60 		strb	r6, [sp, #10]
 430:Core/Src/ILI9341_STM32_Driver.c **** HAL_SPI_Transmit(HSPI_INSTANCE, Temp_Buffer1, 4, 1);
 978              		.loc 1 430 54 view .LVU185
 979 00dc 0133     		adds	r3, r3, #1
 430:Core/Src/ILI9341_STM32_Driver.c **** HAL_SPI_Transmit(HSPI_INSTANCE, Temp_Buffer1, 4, 1);
 980              		.loc 1 430 15 view .LVU186
 981 00de 8DF80B30 		strb	r3, [sp, #11]
 431:Core/Src/ILI9341_STM32_Driver.c **** HAL_GPIO_WritePin(LCD_CS_PORT, LCD_CS_PIN, GPIO_PIN_SET);
 982              		.loc 1 431 1 is_stmt 1 view .LVU187
 983 00e2 0123     		movs	r3, #1
 984 00e4 0422     		movs	r2, #4
 985 00e6 02A9     		add	r1, sp, #8
 986 00e8 2046     		mov	r0, r4
 987 00ea FFF7FEFF 		bl	HAL_SPI_Transmit
 988              	.LVL98:
 432:Core/Src/ILI9341_STM32_Driver.c **** 
 989              		.loc 1 432 1 view .LVU188
 990 00ee 0122     		movs	r2, #1
 991 00f0 1146     		mov	r1, r2
 992 00f2 2846     		mov	r0, r5
 993 00f4 FFF7FEFF 		bl	HAL_GPIO_WritePin
 994              	.LVL99:
 435:Core/Src/ILI9341_STM32_Driver.c **** HAL_GPIO_WritePin(LCD_CS_PORT, LCD_CS_PIN, GPIO_PIN_RESET);	
ARM GAS  C:\Users\zacht\AppData\Local\Temp\ccqG58aR.s 			page 27


 995              		.loc 1 435 1 view .LVU189
 996 00f8 0022     		movs	r2, #0
 997 00fa 0421     		movs	r1, #4
 998 00fc 2846     		mov	r0, r5
 999 00fe FFF7FEFF 		bl	HAL_GPIO_WritePin
 1000              	.LVL100:
 436:Core/Src/ILI9341_STM32_Driver.c **** ILI9341_SPI_Send(0x2C);
 1001              		.loc 1 436 1 view .LVU190
 1002 0102 0022     		movs	r2, #0
 1003 0104 0121     		movs	r1, #1
 1004 0106 2846     		mov	r0, r5
 1005 0108 FFF7FEFF 		bl	HAL_GPIO_WritePin
 1006              	.LVL101:
 437:Core/Src/ILI9341_STM32_Driver.c **** HAL_GPIO_WritePin(LCD_DC_PORT, LCD_DC_PIN, GPIO_PIN_SET);			
 1007              		.loc 1 437 1 view .LVU191
 1008 010c 2C20     		movs	r0, #44
 1009 010e FFF7FEFF 		bl	ILI9341_SPI_Send
 1010              	.LVL102:
 438:Core/Src/ILI9341_STM32_Driver.c **** HAL_GPIO_WritePin(LCD_CS_PORT, LCD_CS_PIN, GPIO_PIN_SET);			
 1011              		.loc 1 438 1 view .LVU192
 1012 0112 0122     		movs	r2, #1
 1013 0114 0421     		movs	r1, #4
 1014 0116 2846     		mov	r0, r5
 1015 0118 FFF7FEFF 		bl	HAL_GPIO_WritePin
 1016              	.LVL103:
 439:Core/Src/ILI9341_STM32_Driver.c **** 
 1017              		.loc 1 439 1 view .LVU193
 1018 011c 0122     		movs	r2, #1
 1019 011e 1146     		mov	r1, r2
 1020 0120 2846     		mov	r0, r5
 1021 0122 FFF7FEFF 		bl	HAL_GPIO_WritePin
 1022              	.LVL104:
 442:Core/Src/ILI9341_STM32_Driver.c **** unsigned char Temp_Buffer2[2] = {Colour>>8, Colour};
 1023              		.loc 1 442 1 view .LVU194
 1024 0126 0022     		movs	r2, #0
 1025 0128 0121     		movs	r1, #1
 1026 012a 2846     		mov	r0, r5
 1027 012c FFF7FEFF 		bl	HAL_GPIO_WritePin
 1028              	.LVL105:
 443:Core/Src/ILI9341_STM32_Driver.c **** HAL_SPI_Transmit(HSPI_INSTANCE, Temp_Buffer2, 2, 1);
 1029              		.loc 1 443 1 view .LVU195
 443:Core/Src/ILI9341_STM32_Driver.c **** HAL_SPI_Transmit(HSPI_INSTANCE, Temp_Buffer2, 2, 1);
 1030              		.loc 1 443 15 is_stmt 0 view .LVU196
 1031 0130 3B0A     		lsrs	r3, r7, #8
 1032 0132 8DF80430 		strb	r3, [sp, #4]
 1033 0136 8DF80570 		strb	r7, [sp, #5]
 444:Core/Src/ILI9341_STM32_Driver.c **** HAL_GPIO_WritePin(LCD_CS_PORT, LCD_CS_PIN, GPIO_PIN_SET);
 1034              		.loc 1 444 1 is_stmt 1 view .LVU197
 1035 013a 0123     		movs	r3, #1
 1036 013c 0222     		movs	r2, #2
 1037 013e 01A9     		add	r1, sp, #4
 1038 0140 2046     		mov	r0, r4
 1039 0142 FFF7FEFF 		bl	HAL_SPI_Transmit
 1040              	.LVL106:
 445:Core/Src/ILI9341_STM32_Driver.c **** 	
 1041              		.loc 1 445 1 view .LVU198
 1042 0146 0122     		movs	r2, #1
ARM GAS  C:\Users\zacht\AppData\Local\Temp\ccqG58aR.s 			page 28


 1043 0148 1146     		mov	r1, r2
 1044 014a 2846     		mov	r0, r5
 1045 014c FFF7FEFF 		bl	HAL_GPIO_WritePin
 1046              	.LVL107:
 1047 0150 66E7     		b	.L57
 1048              	.LVL108:
 1049              	.L62:
 1050              	.LCFI22:
 1051              		.cfi_def_cfa_offset 0
 1052              		.cfi_restore 4
 1053              		.cfi_restore 5
 1054              		.cfi_restore 6
 1055              		.cfi_restore 7
 1056              		.cfi_restore 14
 445:Core/Src/ILI9341_STM32_Driver.c **** 	
 1057              		.loc 1 445 1 is_stmt 0 view .LVU199
 1058 0152 7047     		bx	lr
 1059              	.L67:
 1060              		.align	2
 1061              	.L66:
 1062 0154 00000000 		.word	.LANCHOR0
 1063 0158 00000000 		.word	.LANCHOR1
 1064 015c 00040240 		.word	1073873920
 1065 0160 00000000 		.word	hspi1
 1066              		.cfi_endproc
 1067              	.LFE145:
 1069              		.section	.text.ILI9341_Draw_Rectangle,"ax",%progbits
 1070              		.align	1
 1071              		.global	ILI9341_Draw_Rectangle
 1072              		.syntax unified
 1073              		.thumb
 1074              		.thumb_func
 1076              	ILI9341_Draw_Rectangle:
 1077              	.LVL109:
 1078              	.LFB146:
 448:Core/Src/ILI9341_STM32_Driver.c **** 
 449:Core/Src/ILI9341_STM32_Driver.c **** //DRAW RECTANGLE OF SET SIZE AND HEIGTH AT X and Y POSITION WITH CUSTOM COLOUR
 450:Core/Src/ILI9341_STM32_Driver.c **** //
 451:Core/Src/ILI9341_STM32_Driver.c **** //Rectangle is hollow. X and Y positions mark the upper left corner of rectangle
 452:Core/Src/ILI9341_STM32_Driver.c **** //As with all other draw calls x0 and y0 locations dependant on screen orientation
 453:Core/Src/ILI9341_STM32_Driver.c **** //
 454:Core/Src/ILI9341_STM32_Driver.c **** 
 455:Core/Src/ILI9341_STM32_Driver.c **** void ILI9341_Draw_Rectangle(uint16_t X, uint16_t Y, uint16_t Width, uint16_t Height, uint16_t Colou
 456:Core/Src/ILI9341_STM32_Driver.c **** {
 1079              		.loc 1 456 1 is_stmt 1 view -0
 1080              		.cfi_startproc
 1081              		@ args = 4, pretend = 0, frame = 0
 1082              		@ frame_needed = 0, uses_anonymous_args = 0
 1083              		.loc 1 456 1 is_stmt 0 view .LVU201
 1084 0000 38B5     		push	{r3, r4, r5, lr}
 1085              	.LCFI23:
 1086              		.cfi_def_cfa_offset 16
 1087              		.cfi_offset 3, -16
 1088              		.cfi_offset 4, -12
 1089              		.cfi_offset 5, -8
 1090              		.cfi_offset 14, -4
 1091 0002 1C46     		mov	r4, r3
ARM GAS  C:\Users\zacht\AppData\Local\Temp\ccqG58aR.s 			page 29


 457:Core/Src/ILI9341_STM32_Driver.c **** if((X >=LCD_WIDTH) || (Y >=LCD_HEIGHT)) return;
 1092              		.loc 1 457 1 is_stmt 1 view .LVU202
 1093              		.loc 1 457 7 is_stmt 0 view .LVU203
 1094 0004 184B     		ldr	r3, .L73
 1095              	.LVL110:
 1096              		.loc 1 457 7 view .LVU204
 1097 0006 1B88     		ldrh	r3, [r3]
 1098 0008 9BB2     		uxth	r3, r3
 1099              		.loc 1 457 3 view .LVU205
 1100 000a 8342     		cmp	r3, r0
 1101 000c 2BD9     		bls	.L68
 1102 000e 1546     		mov	r5, r2
 1103              		.loc 1 457 26 discriminator 2 view .LVU206
 1104 0010 164B     		ldr	r3, .L73+4
 1105 0012 1B88     		ldrh	r3, [r3]
 1106 0014 9BB2     		uxth	r3, r3
 1107              		.loc 1 457 20 discriminator 2 view .LVU207
 1108 0016 8B42     		cmp	r3, r1
 1109 0018 25D9     		bls	.L68
 458:Core/Src/ILI9341_STM32_Driver.c **** if((X+Width-1)>=LCD_WIDTH)
 1110              		.loc 1 458 1 is_stmt 1 view .LVU208
 1111              		.loc 1 458 6 is_stmt 0 view .LVU209
 1112 001a 8218     		adds	r2, r0, r2
 1113              	.LVL111:
 1114              		.loc 1 458 15 view .LVU210
 1115 001c 124B     		ldr	r3, .L73
 1116 001e 1B88     		ldrh	r3, [r3]
 1117 0020 9BB2     		uxth	r3, r3
 1118              		.loc 1 458 3 view .LVU211
 1119 0022 9A42     		cmp	r2, r3
 1120 0024 04DD     		ble	.L70
 459:Core/Src/ILI9341_STM32_Driver.c **** 	{
 460:Core/Src/ILI9341_STM32_Driver.c **** 		Width=LCD_WIDTH-X;
 1121              		.loc 1 460 3 is_stmt 1 view .LVU212
 1122              		.loc 1 460 18 is_stmt 0 view .LVU213
 1123 0026 104B     		ldr	r3, .L73
 1124 0028 1D88     		ldrh	r5, [r3]
 1125 002a ADB2     		uxth	r5, r5
 1126              		.loc 1 460 8 view .LVU214
 1127 002c 2D1A     		subs	r5, r5, r0
 1128 002e ADB2     		uxth	r5, r5
 1129              	.LVL112:
 1130              	.L70:
 461:Core/Src/ILI9341_STM32_Driver.c **** 	}
 462:Core/Src/ILI9341_STM32_Driver.c **** if((Y+Height-1)>=LCD_HEIGHT)
 1131              		.loc 1 462 1 is_stmt 1 view .LVU215
 1132              		.loc 1 462 6 is_stmt 0 view .LVU216
 1133 0030 0A19     		adds	r2, r1, r4
 1134              		.loc 1 462 16 view .LVU217
 1135 0032 0E4B     		ldr	r3, .L73+4
 1136 0034 1B88     		ldrh	r3, [r3]
 1137 0036 9BB2     		uxth	r3, r3
 1138              		.loc 1 462 3 view .LVU218
 1139 0038 9A42     		cmp	r2, r3
 1140 003a 04DD     		ble	.L71
 463:Core/Src/ILI9341_STM32_Driver.c **** 	{
 464:Core/Src/ILI9341_STM32_Driver.c **** 		Height=LCD_HEIGHT-Y;
ARM GAS  C:\Users\zacht\AppData\Local\Temp\ccqG58aR.s 			page 30


 1141              		.loc 1 464 3 is_stmt 1 view .LVU219
 1142              		.loc 1 464 20 is_stmt 0 view .LVU220
 1143 003c 0B4B     		ldr	r3, .L73+4
 1144 003e 1C88     		ldrh	r4, [r3]
 1145 0040 A4B2     		uxth	r4, r4
 1146              		.loc 1 464 9 view .LVU221
 1147 0042 641A     		subs	r4, r4, r1
 1148 0044 A4B2     		uxth	r4, r4
 1149              	.LVL113:
 1150              	.L71:
 465:Core/Src/ILI9341_STM32_Driver.c **** 	}
 466:Core/Src/ILI9341_STM32_Driver.c **** ILI9341_Set_Address(X, Y, X+Width-1, Y+Height-1);
 1151              		.loc 1 466 1 is_stmt 1 view .LVU222
 1152              		.loc 1 466 28 is_stmt 0 view .LVU223
 1153 0046 2A18     		adds	r2, r5, r0
 1154 0048 92B2     		uxth	r2, r2
 1155              		.loc 1 466 39 view .LVU224
 1156 004a 6318     		adds	r3, r4, r1
 1157 004c 9BB2     		uxth	r3, r3
 1158              		.loc 1 466 1 view .LVU225
 1159 004e 013B     		subs	r3, r3, #1
 1160 0050 013A     		subs	r2, r2, #1
 1161 0052 9BB2     		uxth	r3, r3
 1162 0054 92B2     		uxth	r2, r2
 1163 0056 FFF7FEFF 		bl	ILI9341_Set_Address
 1164              	.LVL114:
 467:Core/Src/ILI9341_STM32_Driver.c **** ILI9341_Draw_Colour_Burst(Colour, Height*Width);
 1165              		.loc 1 467 1 is_stmt 1 view .LVU226
 1166 005a 05FB04F1 		mul	r1, r5, r4
 1167 005e BDF81000 		ldrh	r0, [sp, #16]
 1168 0062 FFF7FEFF 		bl	ILI9341_Draw_Colour_Burst
 1169              	.LVL115:
 1170              	.L68:
 468:Core/Src/ILI9341_STM32_Driver.c **** }
 1171              		.loc 1 468 1 is_stmt 0 view .LVU227
 1172 0066 38BD     		pop	{r3, r4, r5, pc}
 1173              	.LVL116:
 1174              	.L74:
 1175              		.loc 1 468 1 view .LVU228
 1176              		.align	2
 1177              	.L73:
 1178 0068 00000000 		.word	.LANCHOR0
 1179 006c 00000000 		.word	.LANCHOR1
 1180              		.cfi_endproc
 1181              	.LFE146:
 1183              		.section	.text.ILI9341_Draw_Horizontal_Line,"ax",%progbits
 1184              		.align	1
 1185              		.global	ILI9341_Draw_Horizontal_Line
 1186              		.syntax unified
 1187              		.thumb
 1188              		.thumb_func
 1190              	ILI9341_Draw_Horizontal_Line:
 1191              	.LVL117:
 1192              	.LFB147:
 469:Core/Src/ILI9341_STM32_Driver.c **** 
 470:Core/Src/ILI9341_STM32_Driver.c **** //DRAW LINE FROM X,Y LOCATION to X+Width,Y LOCATION
 471:Core/Src/ILI9341_STM32_Driver.c **** void ILI9341_Draw_Horizontal_Line(uint16_t X, uint16_t Y, uint16_t Width, uint16_t Colour)
ARM GAS  C:\Users\zacht\AppData\Local\Temp\ccqG58aR.s 			page 31


 472:Core/Src/ILI9341_STM32_Driver.c **** {
 1193              		.loc 1 472 1 is_stmt 1 view -0
 1194              		.cfi_startproc
 1195              		@ args = 0, pretend = 0, frame = 0
 1196              		@ frame_needed = 0, uses_anonymous_args = 0
 1197              		.loc 1 472 1 is_stmt 0 view .LVU230
 1198 0000 38B5     		push	{r3, r4, r5, lr}
 1199              	.LCFI24:
 1200              		.cfi_def_cfa_offset 16
 1201              		.cfi_offset 3, -16
 1202              		.cfi_offset 4, -12
 1203              		.cfi_offset 5, -8
 1204              		.cfi_offset 14, -4
 1205 0002 1446     		mov	r4, r2
 1206 0004 1D46     		mov	r5, r3
 473:Core/Src/ILI9341_STM32_Driver.c **** if((X >=LCD_WIDTH) || (Y >=LCD_HEIGHT)) return;
 1207              		.loc 1 473 1 is_stmt 1 view .LVU231
 1208              		.loc 1 473 7 is_stmt 0 view .LVU232
 1209 0006 104B     		ldr	r3, .L79
 1210              	.LVL118:
 1211              		.loc 1 473 7 view .LVU233
 1212 0008 1A88     		ldrh	r2, [r3]
 1213              	.LVL119:
 1214              		.loc 1 473 7 view .LVU234
 1215 000a 92B2     		uxth	r2, r2
 1216              		.loc 1 473 3 view .LVU235
 1217 000c 8242     		cmp	r2, r0
 1218 000e 1AD9     		bls	.L75
 1219              		.loc 1 473 26 discriminator 2 view .LVU236
 1220 0010 0E4B     		ldr	r3, .L79+4
 1221 0012 1B88     		ldrh	r3, [r3]
 1222 0014 9BB2     		uxth	r3, r3
 1223              		.loc 1 473 20 discriminator 2 view .LVU237
 1224 0016 8B42     		cmp	r3, r1
 1225 0018 15D9     		bls	.L75
 474:Core/Src/ILI9341_STM32_Driver.c **** if((X+Width-1)>=LCD_WIDTH)
 1226              		.loc 1 474 1 is_stmt 1 view .LVU238
 1227              		.loc 1 474 6 is_stmt 0 view .LVU239
 1228 001a 0219     		adds	r2, r0, r4
 1229              		.loc 1 474 15 view .LVU240
 1230 001c 0A4B     		ldr	r3, .L79
 1231 001e 1B88     		ldrh	r3, [r3]
 1232 0020 9BB2     		uxth	r3, r3
 1233              		.loc 1 474 3 view .LVU241
 1234 0022 9A42     		cmp	r2, r3
 1235 0024 04DD     		ble	.L77
 475:Core/Src/ILI9341_STM32_Driver.c **** 	{
 476:Core/Src/ILI9341_STM32_Driver.c **** 		Width=LCD_WIDTH-X;
 1236              		.loc 1 476 3 is_stmt 1 view .LVU242
 1237              		.loc 1 476 18 is_stmt 0 view .LVU243
 1238 0026 084B     		ldr	r3, .L79
 1239 0028 1C88     		ldrh	r4, [r3]
 1240 002a A4B2     		uxth	r4, r4
 1241              		.loc 1 476 8 view .LVU244
 1242 002c 241A     		subs	r4, r4, r0
 1243 002e A4B2     		uxth	r4, r4
 1244              	.LVL120:
ARM GAS  C:\Users\zacht\AppData\Local\Temp\ccqG58aR.s 			page 32


 1245              	.L77:
 477:Core/Src/ILI9341_STM32_Driver.c **** 	}
 478:Core/Src/ILI9341_STM32_Driver.c **** ILI9341_Set_Address(X, Y, X+Width-1, Y);
 1246              		.loc 1 478 1 is_stmt 1 view .LVU245
 1247              		.loc 1 478 28 is_stmt 0 view .LVU246
 1248 0030 2218     		adds	r2, r4, r0
 1249 0032 92B2     		uxth	r2, r2
 1250              		.loc 1 478 1 view .LVU247
 1251 0034 013A     		subs	r2, r2, #1
 1252 0036 0B46     		mov	r3, r1
 1253 0038 92B2     		uxth	r2, r2
 1254 003a FFF7FEFF 		bl	ILI9341_Set_Address
 1255              	.LVL121:
 479:Core/Src/ILI9341_STM32_Driver.c **** ILI9341_Draw_Colour_Burst(Colour, Width);
 1256              		.loc 1 479 1 is_stmt 1 view .LVU248
 1257 003e 2146     		mov	r1, r4
 1258 0040 2846     		mov	r0, r5
 1259 0042 FFF7FEFF 		bl	ILI9341_Draw_Colour_Burst
 1260              	.LVL122:
 1261              	.L75:
 480:Core/Src/ILI9341_STM32_Driver.c **** }
 1262              		.loc 1 480 1 is_stmt 0 view .LVU249
 1263 0046 38BD     		pop	{r3, r4, r5, pc}
 1264              	.L80:
 1265              		.align	2
 1266              	.L79:
 1267 0048 00000000 		.word	.LANCHOR0
 1268 004c 00000000 		.word	.LANCHOR1
 1269              		.cfi_endproc
 1270              	.LFE147:
 1272              		.section	.text.ILI9341_Draw_Vertical_Line,"ax",%progbits
 1273              		.align	1
 1274              		.global	ILI9341_Draw_Vertical_Line
 1275              		.syntax unified
 1276              		.thumb
 1277              		.thumb_func
 1279              	ILI9341_Draw_Vertical_Line:
 1280              	.LVL123:
 1281              	.LFB148:
 481:Core/Src/ILI9341_STM32_Driver.c **** 
 482:Core/Src/ILI9341_STM32_Driver.c **** //DRAW LINE FROM X,Y LOCATION to X,Y+Height LOCATION
 483:Core/Src/ILI9341_STM32_Driver.c **** void ILI9341_Draw_Vertical_Line(uint16_t X, uint16_t Y, uint16_t Height, uint16_t Colour)
 484:Core/Src/ILI9341_STM32_Driver.c **** {
 1282              		.loc 1 484 1 is_stmt 1 view -0
 1283              		.cfi_startproc
 1284              		@ args = 0, pretend = 0, frame = 0
 1285              		@ frame_needed = 0, uses_anonymous_args = 0
 1286              		.loc 1 484 1 is_stmt 0 view .LVU251
 1287 0000 38B5     		push	{r3, r4, r5, lr}
 1288              	.LCFI25:
 1289              		.cfi_def_cfa_offset 16
 1290              		.cfi_offset 3, -16
 1291              		.cfi_offset 4, -12
 1292              		.cfi_offset 5, -8
 1293              		.cfi_offset 14, -4
 1294 0002 1446     		mov	r4, r2
 1295 0004 1D46     		mov	r5, r3
ARM GAS  C:\Users\zacht\AppData\Local\Temp\ccqG58aR.s 			page 33


 485:Core/Src/ILI9341_STM32_Driver.c **** if((X >=LCD_WIDTH) || (Y >=LCD_HEIGHT)) return;
 1296              		.loc 1 485 1 is_stmt 1 view .LVU252
 1297              		.loc 1 485 7 is_stmt 0 view .LVU253
 1298 0006 104B     		ldr	r3, .L85
 1299              	.LVL124:
 1300              		.loc 1 485 7 view .LVU254
 1301 0008 1A88     		ldrh	r2, [r3]
 1302              	.LVL125:
 1303              		.loc 1 485 7 view .LVU255
 1304 000a 92B2     		uxth	r2, r2
 1305              		.loc 1 485 3 view .LVU256
 1306 000c 8242     		cmp	r2, r0
 1307 000e 1AD9     		bls	.L81
 1308              		.loc 1 485 26 discriminator 2 view .LVU257
 1309 0010 0E4B     		ldr	r3, .L85+4
 1310 0012 1B88     		ldrh	r3, [r3]
 1311 0014 9BB2     		uxth	r3, r3
 1312              		.loc 1 485 20 discriminator 2 view .LVU258
 1313 0016 8B42     		cmp	r3, r1
 1314 0018 15D9     		bls	.L81
 486:Core/Src/ILI9341_STM32_Driver.c **** if((Y+Height-1)>=LCD_HEIGHT)
 1315              		.loc 1 486 1 is_stmt 1 view .LVU259
 1316              		.loc 1 486 6 is_stmt 0 view .LVU260
 1317 001a 0A19     		adds	r2, r1, r4
 1318              		.loc 1 486 16 view .LVU261
 1319 001c 0B4B     		ldr	r3, .L85+4
 1320 001e 1B88     		ldrh	r3, [r3]
 1321 0020 9BB2     		uxth	r3, r3
 1322              		.loc 1 486 3 view .LVU262
 1323 0022 9A42     		cmp	r2, r3
 1324 0024 04DD     		ble	.L83
 487:Core/Src/ILI9341_STM32_Driver.c **** 	{
 488:Core/Src/ILI9341_STM32_Driver.c **** 		Height=LCD_HEIGHT-Y;
 1325              		.loc 1 488 3 is_stmt 1 view .LVU263
 1326              		.loc 1 488 20 is_stmt 0 view .LVU264
 1327 0026 094B     		ldr	r3, .L85+4
 1328 0028 1C88     		ldrh	r4, [r3]
 1329 002a A4B2     		uxth	r4, r4
 1330              		.loc 1 488 9 view .LVU265
 1331 002c 641A     		subs	r4, r4, r1
 1332 002e A4B2     		uxth	r4, r4
 1333              	.LVL126:
 1334              	.L83:
 489:Core/Src/ILI9341_STM32_Driver.c **** 	}
 490:Core/Src/ILI9341_STM32_Driver.c **** ILI9341_Set_Address(X, Y, X, Y+Height-1);
 1335              		.loc 1 490 1 is_stmt 1 view .LVU266
 1336              		.loc 1 490 31 is_stmt 0 view .LVU267
 1337 0030 6318     		adds	r3, r4, r1
 1338 0032 9BB2     		uxth	r3, r3
 1339              		.loc 1 490 1 view .LVU268
 1340 0034 013B     		subs	r3, r3, #1
 1341 0036 9BB2     		uxth	r3, r3
 1342 0038 0246     		mov	r2, r0
 1343 003a FFF7FEFF 		bl	ILI9341_Set_Address
 1344              	.LVL127:
 491:Core/Src/ILI9341_STM32_Driver.c **** ILI9341_Draw_Colour_Burst(Colour, Height);
 1345              		.loc 1 491 1 is_stmt 1 view .LVU269
ARM GAS  C:\Users\zacht\AppData\Local\Temp\ccqG58aR.s 			page 34


 1346 003e 2146     		mov	r1, r4
 1347 0040 2846     		mov	r0, r5
 1348 0042 FFF7FEFF 		bl	ILI9341_Draw_Colour_Burst
 1349              	.LVL128:
 1350              	.L81:
 492:Core/Src/ILI9341_STM32_Driver.c **** }
 1351              		.loc 1 492 1 is_stmt 0 view .LVU270
 1352 0046 38BD     		pop	{r3, r4, r5, pc}
 1353              	.L86:
 1354              		.align	2
 1355              	.L85:
 1356 0048 00000000 		.word	.LANCHOR0
 1357 004c 00000000 		.word	.LANCHOR1
 1358              		.cfi_endproc
 1359              	.LFE148:
 1361              		.global	LCD_WIDTH
 1362              		.global	LCD_HEIGHT
 1363              		.section	.data.LCD_HEIGHT,"aw"
 1364              		.align	1
 1365              		.set	.LANCHOR1,. + 0
 1368              	LCD_HEIGHT:
 1369 0000 4001     		.short	320
 1370              		.section	.data.LCD_WIDTH,"aw"
 1371              		.align	1
 1372              		.set	.LANCHOR0,. + 0
 1375              	LCD_WIDTH:
 1376 0000 F000     		.short	240
 1377              		.text
 1378              	.Letext0:
 1379              		.file 2 "c:\\users\\zacht\\desktop\\files\\projects\\stm32_tools\\gcc-arm-none-eabi-10.3-2021.10\\
 1380              		.file 3 "c:\\users\\zacht\\desktop\\files\\projects\\stm32_tools\\gcc-arm-none-eabi-10.3-2021.10\\
 1381              		.file 4 "Drivers/CMSIS/Device/ST/STM32F4xx/Include/stm32f401xc.h"
 1382              		.file 5 "Drivers/STM32F4xx_HAL_Driver/Inc/stm32f4xx_hal_def.h"
 1383              		.file 6 "Drivers/STM32F4xx_HAL_Driver/Inc/stm32f4xx_hal_gpio.h"
 1384              		.file 7 "Drivers/STM32F4xx_HAL_Driver/Inc/stm32f4xx_hal_dma.h"
 1385              		.file 8 "Drivers/STM32F4xx_HAL_Driver/Inc/stm32f4xx_hal_spi.h"
 1386              		.file 9 "Core/Inc/spi.h"
 1387              		.file 10 "Drivers/STM32F4xx_HAL_Driver/Inc/stm32f4xx_hal.h"
 1388              		.file 11 "Core/Inc/gpio.h"
ARM GAS  C:\Users\zacht\AppData\Local\Temp\ccqG58aR.s 			page 35


DEFINED SYMBOLS
                            *ABS*:00000000 ILI9341_STM32_Driver.c
C:\Users\zacht\AppData\Local\Temp\ccqG58aR.s:20     .text.ILI9341_SPI_Init:00000000 $t
C:\Users\zacht\AppData\Local\Temp\ccqG58aR.s:26     .text.ILI9341_SPI_Init:00000000 ILI9341_SPI_Init
C:\Users\zacht\AppData\Local\Temp\ccqG58aR.s:55     .text.ILI9341_SPI_Init:00000018 $d
C:\Users\zacht\AppData\Local\Temp\ccqG58aR.s:60     .text.ILI9341_SPI_Send:00000000 $t
C:\Users\zacht\AppData\Local\Temp\ccqG58aR.s:66     .text.ILI9341_SPI_Send:00000000 ILI9341_SPI_Send
C:\Users\zacht\AppData\Local\Temp\ccqG58aR.s:100    .text.ILI9341_SPI_Send:0000001c $d
C:\Users\zacht\AppData\Local\Temp\ccqG58aR.s:105    .text.ILI9341_Write_Command:00000000 $t
C:\Users\zacht\AppData\Local\Temp\ccqG58aR.s:111    .text.ILI9341_Write_Command:00000000 ILI9341_Write_Command
C:\Users\zacht\AppData\Local\Temp\ccqG58aR.s:157    .text.ILI9341_Write_Command:0000002c $d
C:\Users\zacht\AppData\Local\Temp\ccqG58aR.s:162    .text.ILI9341_Write_Data:00000000 $t
C:\Users\zacht\AppData\Local\Temp\ccqG58aR.s:168    .text.ILI9341_Write_Data:00000000 ILI9341_Write_Data
C:\Users\zacht\AppData\Local\Temp\ccqG58aR.s:214    .text.ILI9341_Write_Data:0000002c $d
C:\Users\zacht\AppData\Local\Temp\ccqG58aR.s:219    .text.ILI9341_Set_Address:00000000 $t
C:\Users\zacht\AppData\Local\Temp\ccqG58aR.s:225    .text.ILI9341_Set_Address:00000000 ILI9341_Set_Address
C:\Users\zacht\AppData\Local\Temp\ccqG58aR.s:298    .text.ILI9341_Reset:00000000 $t
C:\Users\zacht\AppData\Local\Temp\ccqG58aR.s:304    .text.ILI9341_Reset:00000000 ILI9341_Reset
C:\Users\zacht\AppData\Local\Temp\ccqG58aR.s:347    .text.ILI9341_Reset:00000030 $d
C:\Users\zacht\AppData\Local\Temp\ccqG58aR.s:352    .text.ILI9341_Set_Rotation:00000000 $t
C:\Users\zacht\AppData\Local\Temp\ccqG58aR.s:358    .text.ILI9341_Set_Rotation:00000000 ILI9341_Set_Rotation
C:\Users\zacht\AppData\Local\Temp\ccqG58aR.s:389    .text.ILI9341_Set_Rotation:00000018 $d
C:\Users\zacht\AppData\Local\Temp\ccqG58aR.s:393    .text.ILI9341_Set_Rotation:0000001c $t
C:\Users\zacht\AppData\Local\Temp\ccqG58aR.s:469    .text.ILI9341_Set_Rotation:00000074 $d
C:\Users\zacht\AppData\Local\Temp\ccqG58aR.s:475    .text.ILI9341_Enable:00000000 $t
C:\Users\zacht\AppData\Local\Temp\ccqG58aR.s:481    .text.ILI9341_Enable:00000000 ILI9341_Enable
C:\Users\zacht\AppData\Local\Temp\ccqG58aR.s:503    .text.ILI9341_Enable:00000010 $d
C:\Users\zacht\AppData\Local\Temp\ccqG58aR.s:508    .text.ILI9341_Draw_Colour:00000000 $t
C:\Users\zacht\AppData\Local\Temp\ccqG58aR.s:514    .text.ILI9341_Draw_Colour:00000000 ILI9341_Draw_Colour
C:\Users\zacht\AppData\Local\Temp\ccqG58aR.s:572    .text.ILI9341_Draw_Colour:00000040 $d
C:\Users\zacht\AppData\Local\Temp\ccqG58aR.s:578    .text.ILI9341_Draw_Colour_Burst:00000000 $t
C:\Users\zacht\AppData\Local\Temp\ccqG58aR.s:584    .text.ILI9341_Draw_Colour_Burst:00000000 ILI9341_Draw_Colour_Burst
C:\Users\zacht\AppData\Local\Temp\ccqG58aR.s:741    .text.ILI9341_Draw_Colour_Burst:0000008c $d
C:\Users\zacht\AppData\Local\Temp\ccqG58aR.s:748    .text.ILI9341_Fill_Screen:00000000 $t
C:\Users\zacht\AppData\Local\Temp\ccqG58aR.s:754    .text.ILI9341_Fill_Screen:00000000 ILI9341_Fill_Screen
C:\Users\zacht\AppData\Local\Temp\ccqG58aR.s:799    .text.ILI9341_Fill_Screen:0000002c $d
C:\Users\zacht\AppData\Local\Temp\ccqG58aR.s:805    .text.ILI9341_Draw_Pixel:00000000 $t
C:\Users\zacht\AppData\Local\Temp\ccqG58aR.s:811    .text.ILI9341_Draw_Pixel:00000000 ILI9341_Draw_Pixel
C:\Users\zacht\AppData\Local\Temp\ccqG58aR.s:1062   .text.ILI9341_Draw_Pixel:00000154 $d
C:\Users\zacht\AppData\Local\Temp\ccqG58aR.s:1070   .text.ILI9341_Draw_Rectangle:00000000 $t
C:\Users\zacht\AppData\Local\Temp\ccqG58aR.s:1076   .text.ILI9341_Draw_Rectangle:00000000 ILI9341_Draw_Rectangle
C:\Users\zacht\AppData\Local\Temp\ccqG58aR.s:1178   .text.ILI9341_Draw_Rectangle:00000068 $d
C:\Users\zacht\AppData\Local\Temp\ccqG58aR.s:1184   .text.ILI9341_Draw_Horizontal_Line:00000000 $t
C:\Users\zacht\AppData\Local\Temp\ccqG58aR.s:1190   .text.ILI9341_Draw_Horizontal_Line:00000000 ILI9341_Draw_Horizontal_Line
C:\Users\zacht\AppData\Local\Temp\ccqG58aR.s:1267   .text.ILI9341_Draw_Horizontal_Line:00000048 $d
C:\Users\zacht\AppData\Local\Temp\ccqG58aR.s:1273   .text.ILI9341_Draw_Vertical_Line:00000000 $t
C:\Users\zacht\AppData\Local\Temp\ccqG58aR.s:1279   .text.ILI9341_Draw_Vertical_Line:00000000 ILI9341_Draw_Vertical_Line
C:\Users\zacht\AppData\Local\Temp\ccqG58aR.s:1356   .text.ILI9341_Draw_Vertical_Line:00000048 $d
C:\Users\zacht\AppData\Local\Temp\ccqG58aR.s:1375   .data.LCD_WIDTH:00000000 LCD_WIDTH
C:\Users\zacht\AppData\Local\Temp\ccqG58aR.s:1368   .data.LCD_HEIGHT:00000000 LCD_HEIGHT
C:\Users\zacht\AppData\Local\Temp\ccqG58aR.s:1364   .data.LCD_HEIGHT:00000000 $d
C:\Users\zacht\AppData\Local\Temp\ccqG58aR.s:1371   .data.LCD_WIDTH:00000000 $d

UNDEFINED SYMBOLS
MX_SPI1_Init
MX_GPIO_Init
HAL_GPIO_WritePin
ARM GAS  C:\Users\zacht\AppData\Local\Temp\ccqG58aR.s 			page 36


HAL_SPI_Transmit
hspi1
HAL_Delay
